ARM GAS  C:\Users\ADMINI~1\AppData\Local\Temp\cc5ctvDq.s 			page 1


   1              		.syntax unified
   2              		.cpu cortex-m0
   3              		.fpu softvfp
   4              		.eabi_attribute 20, 1
   5              		.eabi_attribute 21, 1
   6              		.eabi_attribute 23, 3
   7              		.eabi_attribute 24, 1
   8              		.eabi_attribute 25, 1
   9              		.eabi_attribute 26, 1
  10              		.eabi_attribute 30, 1
  11              		.eabi_attribute 34, 0
  12              		.eabi_attribute 18, 4
  13              		.thumb
  14              		.syntax unified
  15              		.file	"isr_SW.c"
  16              		.text
  17              	.Ltext0:
  18              		.cfi_sections	.debug_frame
  19              		.section	.text.isr_SW_SetVector,"ax",%progbits
  20              		.align	2
  21              		.global	isr_SW_SetVector
  22              		.code	16
  23              		.thumb_func
  24              		.type	isr_SW_SetVector, %function
  25              	isr_SW_SetVector:
  26              	.LFB6:
  27              		.file 1 "Generated_Source\\PSoC4\\isr_SW.c"
   1:Generated_Source\PSoC4/isr_SW.c **** /*******************************************************************************
   2:Generated_Source\PSoC4/isr_SW.c **** * File Name: isr_SW.c  
   3:Generated_Source\PSoC4/isr_SW.c **** * Version 1.70
   4:Generated_Source\PSoC4/isr_SW.c **** *
   5:Generated_Source\PSoC4/isr_SW.c **** *  Description:
   6:Generated_Source\PSoC4/isr_SW.c **** *   API for controlling the state of an interrupt.
   7:Generated_Source\PSoC4/isr_SW.c **** *
   8:Generated_Source\PSoC4/isr_SW.c **** *
   9:Generated_Source\PSoC4/isr_SW.c **** *  Note:
  10:Generated_Source\PSoC4/isr_SW.c **** *
  11:Generated_Source\PSoC4/isr_SW.c **** ********************************************************************************
  12:Generated_Source\PSoC4/isr_SW.c **** * Copyright 2008-2015, Cypress Semiconductor Corporation.  All rights reserved.
  13:Generated_Source\PSoC4/isr_SW.c **** * You may use this file only in accordance with the license, terms, conditions, 
  14:Generated_Source\PSoC4/isr_SW.c **** * disclaimers, and limitations in the end user license agreement accompanying 
  15:Generated_Source\PSoC4/isr_SW.c **** * the software package with which this file was provided.
  16:Generated_Source\PSoC4/isr_SW.c **** *******************************************************************************/
  17:Generated_Source\PSoC4/isr_SW.c **** 
  18:Generated_Source\PSoC4/isr_SW.c **** 
  19:Generated_Source\PSoC4/isr_SW.c **** #include <cydevice_trm.h>
  20:Generated_Source\PSoC4/isr_SW.c **** #include <CyLib.h>
  21:Generated_Source\PSoC4/isr_SW.c **** #include <isr_SW.h>
  22:Generated_Source\PSoC4/isr_SW.c **** #include "cyapicallbacks.h"
  23:Generated_Source\PSoC4/isr_SW.c **** 
  24:Generated_Source\PSoC4/isr_SW.c **** #if !defined(isr_SW__REMOVED) /* Check for removal by optimization */
  25:Generated_Source\PSoC4/isr_SW.c **** 
  26:Generated_Source\PSoC4/isr_SW.c **** /*******************************************************************************
  27:Generated_Source\PSoC4/isr_SW.c **** *  Place your includes, defines and code here 
  28:Generated_Source\PSoC4/isr_SW.c **** ********************************************************************************/
  29:Generated_Source\PSoC4/isr_SW.c **** /* `#START isr_SW_intc` */
  30:Generated_Source\PSoC4/isr_SW.c **** #include "LED_Status.h"
ARM GAS  C:\Users\ADMINI~1\AppData\Local\Temp\cc5ctvDq.s 			page 2


  31:Generated_Source\PSoC4/isr_SW.c **** #include "SW.h"
  32:Generated_Source\PSoC4/isr_SW.c **** /* `#END` */
  33:Generated_Source\PSoC4/isr_SW.c **** 
  34:Generated_Source\PSoC4/isr_SW.c **** extern cyisraddress CyRamVectors[CYINT_IRQ_BASE + CY_NUM_INTERRUPTS];
  35:Generated_Source\PSoC4/isr_SW.c **** 
  36:Generated_Source\PSoC4/isr_SW.c **** /* Declared in startup, used to set unused interrupts to. */
  37:Generated_Source\PSoC4/isr_SW.c **** CY_ISR_PROTO(IntDefaultHandler);
  38:Generated_Source\PSoC4/isr_SW.c **** 
  39:Generated_Source\PSoC4/isr_SW.c **** 
  40:Generated_Source\PSoC4/isr_SW.c **** /*******************************************************************************
  41:Generated_Source\PSoC4/isr_SW.c **** * Function Name: isr_SW_Start
  42:Generated_Source\PSoC4/isr_SW.c **** ********************************************************************************
  43:Generated_Source\PSoC4/isr_SW.c **** *
  44:Generated_Source\PSoC4/isr_SW.c **** * Summary:
  45:Generated_Source\PSoC4/isr_SW.c **** *  Set up the interrupt and enable it. This function disables the interrupt, 
  46:Generated_Source\PSoC4/isr_SW.c **** *  sets the default interrupt vector, sets the priority from the value in the
  47:Generated_Source\PSoC4/isr_SW.c **** *  Design Wide Resources Interrupt Editor, then enables the interrupt to the 
  48:Generated_Source\PSoC4/isr_SW.c **** *  interrupt controller.
  49:Generated_Source\PSoC4/isr_SW.c **** *
  50:Generated_Source\PSoC4/isr_SW.c **** * Parameters:  
  51:Generated_Source\PSoC4/isr_SW.c **** *   None
  52:Generated_Source\PSoC4/isr_SW.c **** *
  53:Generated_Source\PSoC4/isr_SW.c **** * Return:
  54:Generated_Source\PSoC4/isr_SW.c **** *   None
  55:Generated_Source\PSoC4/isr_SW.c **** *
  56:Generated_Source\PSoC4/isr_SW.c **** *******************************************************************************/
  57:Generated_Source\PSoC4/isr_SW.c **** void isr_SW_Start(void)
  58:Generated_Source\PSoC4/isr_SW.c **** {
  59:Generated_Source\PSoC4/isr_SW.c ****     /* For all we know the interrupt is active. */
  60:Generated_Source\PSoC4/isr_SW.c ****     isr_SW_Disable();
  61:Generated_Source\PSoC4/isr_SW.c **** 
  62:Generated_Source\PSoC4/isr_SW.c ****     /* Set the ISR to point to the isr_SW Interrupt. */
  63:Generated_Source\PSoC4/isr_SW.c ****     isr_SW_SetVector(&isr_SW_Interrupt);
  64:Generated_Source\PSoC4/isr_SW.c **** 
  65:Generated_Source\PSoC4/isr_SW.c ****     /* Set the priority. */
  66:Generated_Source\PSoC4/isr_SW.c ****     isr_SW_SetPriority((uint8)isr_SW_INTC_PRIOR_NUMBER);
  67:Generated_Source\PSoC4/isr_SW.c **** 
  68:Generated_Source\PSoC4/isr_SW.c ****     /* Enable it. */
  69:Generated_Source\PSoC4/isr_SW.c ****     isr_SW_Enable();
  70:Generated_Source\PSoC4/isr_SW.c **** }
  71:Generated_Source\PSoC4/isr_SW.c **** 
  72:Generated_Source\PSoC4/isr_SW.c **** 
  73:Generated_Source\PSoC4/isr_SW.c **** /*******************************************************************************
  74:Generated_Source\PSoC4/isr_SW.c **** * Function Name: isr_SW_StartEx
  75:Generated_Source\PSoC4/isr_SW.c **** ********************************************************************************
  76:Generated_Source\PSoC4/isr_SW.c **** *
  77:Generated_Source\PSoC4/isr_SW.c **** * Summary:
  78:Generated_Source\PSoC4/isr_SW.c **** *  Sets up the interrupt and enables it. This function disables the interrupt,
  79:Generated_Source\PSoC4/isr_SW.c **** *  sets the interrupt vector based on the address passed in, sets the priority 
  80:Generated_Source\PSoC4/isr_SW.c **** *  from the value in the Design Wide Resources Interrupt Editor, then enables 
  81:Generated_Source\PSoC4/isr_SW.c **** *  the interrupt to the interrupt controller.
  82:Generated_Source\PSoC4/isr_SW.c **** *  
  83:Generated_Source\PSoC4/isr_SW.c **** *  When defining ISR functions, the CY_ISR and CY_ISR_PROTO macros should be 
  84:Generated_Source\PSoC4/isr_SW.c **** *  used to provide consistent definition across compilers:
  85:Generated_Source\PSoC4/isr_SW.c **** *  
  86:Generated_Source\PSoC4/isr_SW.c **** *  Function definition example:
  87:Generated_Source\PSoC4/isr_SW.c **** *   CY_ISR(MyISR)
ARM GAS  C:\Users\ADMINI~1\AppData\Local\Temp\cc5ctvDq.s 			page 3


  88:Generated_Source\PSoC4/isr_SW.c **** *   {
  89:Generated_Source\PSoC4/isr_SW.c **** *   }
  90:Generated_Source\PSoC4/isr_SW.c **** *   Function prototype example:
  91:Generated_Source\PSoC4/isr_SW.c **** *   CY_ISR_PROTO(MyISR);
  92:Generated_Source\PSoC4/isr_SW.c **** *
  93:Generated_Source\PSoC4/isr_SW.c **** * Parameters:  
  94:Generated_Source\PSoC4/isr_SW.c **** *   address: Address of the ISR to set in the interrupt vector table.
  95:Generated_Source\PSoC4/isr_SW.c **** *
  96:Generated_Source\PSoC4/isr_SW.c **** * Return:
  97:Generated_Source\PSoC4/isr_SW.c **** *   None
  98:Generated_Source\PSoC4/isr_SW.c **** *
  99:Generated_Source\PSoC4/isr_SW.c **** *******************************************************************************/
 100:Generated_Source\PSoC4/isr_SW.c **** void isr_SW_StartEx(cyisraddress address)
 101:Generated_Source\PSoC4/isr_SW.c **** {
 102:Generated_Source\PSoC4/isr_SW.c ****     /* For all we know the interrupt is active. */
 103:Generated_Source\PSoC4/isr_SW.c ****     isr_SW_Disable();
 104:Generated_Source\PSoC4/isr_SW.c **** 
 105:Generated_Source\PSoC4/isr_SW.c ****     /* Set the ISR to point to the isr_SW Interrupt. */
 106:Generated_Source\PSoC4/isr_SW.c ****     isr_SW_SetVector(address);
 107:Generated_Source\PSoC4/isr_SW.c **** 
 108:Generated_Source\PSoC4/isr_SW.c ****     /* Set the priority. */
 109:Generated_Source\PSoC4/isr_SW.c ****     isr_SW_SetPriority((uint8)isr_SW_INTC_PRIOR_NUMBER);
 110:Generated_Source\PSoC4/isr_SW.c **** 
 111:Generated_Source\PSoC4/isr_SW.c ****     /* Enable it. */
 112:Generated_Source\PSoC4/isr_SW.c ****     isr_SW_Enable();
 113:Generated_Source\PSoC4/isr_SW.c **** }
 114:Generated_Source\PSoC4/isr_SW.c **** 
 115:Generated_Source\PSoC4/isr_SW.c **** 
 116:Generated_Source\PSoC4/isr_SW.c **** /*******************************************************************************
 117:Generated_Source\PSoC4/isr_SW.c **** * Function Name: isr_SW_Stop
 118:Generated_Source\PSoC4/isr_SW.c **** ********************************************************************************
 119:Generated_Source\PSoC4/isr_SW.c **** *
 120:Generated_Source\PSoC4/isr_SW.c **** * Summary:
 121:Generated_Source\PSoC4/isr_SW.c **** *   Disables and removes the interrupt.
 122:Generated_Source\PSoC4/isr_SW.c **** *
 123:Generated_Source\PSoC4/isr_SW.c **** * Parameters:  
 124:Generated_Source\PSoC4/isr_SW.c **** *   None
 125:Generated_Source\PSoC4/isr_SW.c **** *
 126:Generated_Source\PSoC4/isr_SW.c **** * Return:
 127:Generated_Source\PSoC4/isr_SW.c **** *   None
 128:Generated_Source\PSoC4/isr_SW.c **** *
 129:Generated_Source\PSoC4/isr_SW.c **** *******************************************************************************/
 130:Generated_Source\PSoC4/isr_SW.c **** void isr_SW_Stop(void)
 131:Generated_Source\PSoC4/isr_SW.c **** {
 132:Generated_Source\PSoC4/isr_SW.c ****     /* Disable this interrupt. */
 133:Generated_Source\PSoC4/isr_SW.c ****     isr_SW_Disable();
 134:Generated_Source\PSoC4/isr_SW.c **** 
 135:Generated_Source\PSoC4/isr_SW.c ****     /* Set the ISR to point to the passive one. */
 136:Generated_Source\PSoC4/isr_SW.c ****     isr_SW_SetVector(&IntDefaultHandler);
 137:Generated_Source\PSoC4/isr_SW.c **** }
 138:Generated_Source\PSoC4/isr_SW.c **** 
 139:Generated_Source\PSoC4/isr_SW.c **** 
 140:Generated_Source\PSoC4/isr_SW.c **** /*******************************************************************************
 141:Generated_Source\PSoC4/isr_SW.c **** * Function Name: isr_SW_Interrupt
 142:Generated_Source\PSoC4/isr_SW.c **** ********************************************************************************
 143:Generated_Source\PSoC4/isr_SW.c **** *
 144:Generated_Source\PSoC4/isr_SW.c **** * Summary:
ARM GAS  C:\Users\ADMINI~1\AppData\Local\Temp\cc5ctvDq.s 			page 4


 145:Generated_Source\PSoC4/isr_SW.c **** *   The default Interrupt Service Routine for isr_SW.
 146:Generated_Source\PSoC4/isr_SW.c **** *
 147:Generated_Source\PSoC4/isr_SW.c **** *   Add custom code between the START and END comments to keep the next version
 148:Generated_Source\PSoC4/isr_SW.c **** *   of this file from over-writing your code.
 149:Generated_Source\PSoC4/isr_SW.c **** *
 150:Generated_Source\PSoC4/isr_SW.c **** *   Note You may use either the default ISR by using this API, or you may define
 151:Generated_Source\PSoC4/isr_SW.c **** *   your own separate ISR through ISR_StartEx().
 152:Generated_Source\PSoC4/isr_SW.c **** *
 153:Generated_Source\PSoC4/isr_SW.c **** * Parameters:  
 154:Generated_Source\PSoC4/isr_SW.c **** *   None
 155:Generated_Source\PSoC4/isr_SW.c **** *
 156:Generated_Source\PSoC4/isr_SW.c **** * Return:
 157:Generated_Source\PSoC4/isr_SW.c **** *   None
 158:Generated_Source\PSoC4/isr_SW.c **** *
 159:Generated_Source\PSoC4/isr_SW.c **** *******************************************************************************/
 160:Generated_Source\PSoC4/isr_SW.c **** CY_ISR(isr_SW_Interrupt)
 161:Generated_Source\PSoC4/isr_SW.c **** {
 162:Generated_Source\PSoC4/isr_SW.c ****     #ifdef isr_SW_INTERRUPT_INTERRUPT_CALLBACK
 163:Generated_Source\PSoC4/isr_SW.c ****         isr_SW_Interrupt_InterruptCallback();
 164:Generated_Source\PSoC4/isr_SW.c ****     #endif /* isr_SW_INTERRUPT_INTERRUPT_CALLBACK */ 
 165:Generated_Source\PSoC4/isr_SW.c **** 
 166:Generated_Source\PSoC4/isr_SW.c ****     /*  Place your Interrupt code here. */
 167:Generated_Source\PSoC4/isr_SW.c ****     /* `#START isr_SW_Interrupt` */
 168:Generated_Source\PSoC4/isr_SW.c ****     isr_SW_ClearPending();
 169:Generated_Source\PSoC4/isr_SW.c ****     SW_ClearInterrupt();
 170:Generated_Source\PSoC4/isr_SW.c **** 	LED_Status_Wakeup();
 171:Generated_Source\PSoC4/isr_SW.c **** 	SW_Wakeup();
 172:Generated_Source\PSoC4/isr_SW.c **** 	//用来指示唤醒状态
 173:Generated_Source\PSoC4/isr_SW.c **** 	LED_Status_Write(0);
 174:Generated_Source\PSoC4/isr_SW.c **** 	CyDelay(100);
 175:Generated_Source\PSoC4/isr_SW.c ****     LED_Status_Write(1);
 176:Generated_Source\PSoC4/isr_SW.c **** 	CyDelay(100);
 177:Generated_Source\PSoC4/isr_SW.c **** 	
 178:Generated_Source\PSoC4/isr_SW.c ****     /* `#END` */
 179:Generated_Source\PSoC4/isr_SW.c **** }
 180:Generated_Source\PSoC4/isr_SW.c **** 
 181:Generated_Source\PSoC4/isr_SW.c **** 
 182:Generated_Source\PSoC4/isr_SW.c **** /*******************************************************************************
 183:Generated_Source\PSoC4/isr_SW.c **** * Function Name: isr_SW_SetVector
 184:Generated_Source\PSoC4/isr_SW.c **** ********************************************************************************
 185:Generated_Source\PSoC4/isr_SW.c **** *
 186:Generated_Source\PSoC4/isr_SW.c **** * Summary:
 187:Generated_Source\PSoC4/isr_SW.c **** *   Change the ISR vector for the Interrupt. Note calling isr_SW_Start
 188:Generated_Source\PSoC4/isr_SW.c **** *   will override any effect this method would have had. To set the vector 
 189:Generated_Source\PSoC4/isr_SW.c **** *   before the component has been started use isr_SW_StartEx instead.
 190:Generated_Source\PSoC4/isr_SW.c **** * 
 191:Generated_Source\PSoC4/isr_SW.c **** *   When defining ISR functions, the CY_ISR and CY_ISR_PROTO macros should be 
 192:Generated_Source\PSoC4/isr_SW.c **** *   used to provide consistent definition across compilers:
 193:Generated_Source\PSoC4/isr_SW.c **** *
 194:Generated_Source\PSoC4/isr_SW.c **** *   Function definition example:
 195:Generated_Source\PSoC4/isr_SW.c **** *   CY_ISR(MyISR)
 196:Generated_Source\PSoC4/isr_SW.c **** *   {
 197:Generated_Source\PSoC4/isr_SW.c **** *   }
 198:Generated_Source\PSoC4/isr_SW.c **** *
 199:Generated_Source\PSoC4/isr_SW.c **** *   Function prototype example:
 200:Generated_Source\PSoC4/isr_SW.c **** *     CY_ISR_PROTO(MyISR);
 201:Generated_Source\PSoC4/isr_SW.c **** *
ARM GAS  C:\Users\ADMINI~1\AppData\Local\Temp\cc5ctvDq.s 			page 5


 202:Generated_Source\PSoC4/isr_SW.c **** * Parameters:
 203:Generated_Source\PSoC4/isr_SW.c **** *   address: Address of the ISR to set in the interrupt vector table.
 204:Generated_Source\PSoC4/isr_SW.c **** *
 205:Generated_Source\PSoC4/isr_SW.c **** * Return:
 206:Generated_Source\PSoC4/isr_SW.c **** *   None
 207:Generated_Source\PSoC4/isr_SW.c **** *
 208:Generated_Source\PSoC4/isr_SW.c **** *******************************************************************************/
 209:Generated_Source\PSoC4/isr_SW.c **** void isr_SW_SetVector(cyisraddress address)
 210:Generated_Source\PSoC4/isr_SW.c **** {
  28              		.loc 1 210 0
  29              		.cfi_startproc
  30              		@ args = 0, pretend = 0, frame = 0
  31              		@ frame_needed = 0, uses_anonymous_args = 0
  32              		@ link register save eliminated.
  33              	.LVL0:
 211:Generated_Source\PSoC4/isr_SW.c ****     CyRamVectors[CYINT_IRQ_BASE + isr_SW__INTC_NUMBER] = address;
  34              		.loc 1 211 0
  35 0000 014B     		ldr	r3, .L2
  36 0002 9864     		str	r0, [r3, #72]
 212:Generated_Source\PSoC4/isr_SW.c **** }
  37              		.loc 1 212 0
  38              		@ sp needed
  39 0004 7047     		bx	lr
  40              	.L3:
  41 0006 C046     		.align	2
  42              	.L2:
  43 0008 00000000 		.word	CyRamVectors
  44              		.cfi_endproc
  45              	.LFE6:
  46              		.size	isr_SW_SetVector, .-isr_SW_SetVector
  47              		.section	.text.isr_SW_GetVector,"ax",%progbits
  48              		.align	2
  49              		.global	isr_SW_GetVector
  50              		.code	16
  51              		.thumb_func
  52              		.type	isr_SW_GetVector, %function
  53              	isr_SW_GetVector:
  54              	.LFB7:
 213:Generated_Source\PSoC4/isr_SW.c **** 
 214:Generated_Source\PSoC4/isr_SW.c **** 
 215:Generated_Source\PSoC4/isr_SW.c **** /*******************************************************************************
 216:Generated_Source\PSoC4/isr_SW.c **** * Function Name: isr_SW_GetVector
 217:Generated_Source\PSoC4/isr_SW.c **** ********************************************************************************
 218:Generated_Source\PSoC4/isr_SW.c **** *
 219:Generated_Source\PSoC4/isr_SW.c **** * Summary:
 220:Generated_Source\PSoC4/isr_SW.c **** *   Gets the "address" of the current ISR vector for the Interrupt.
 221:Generated_Source\PSoC4/isr_SW.c **** *
 222:Generated_Source\PSoC4/isr_SW.c **** * Parameters:
 223:Generated_Source\PSoC4/isr_SW.c **** *   None
 224:Generated_Source\PSoC4/isr_SW.c **** *
 225:Generated_Source\PSoC4/isr_SW.c **** * Return:
 226:Generated_Source\PSoC4/isr_SW.c **** *   Address of the ISR in the interrupt vector table.
 227:Generated_Source\PSoC4/isr_SW.c **** *
 228:Generated_Source\PSoC4/isr_SW.c **** *******************************************************************************/
 229:Generated_Source\PSoC4/isr_SW.c **** cyisraddress isr_SW_GetVector(void)
 230:Generated_Source\PSoC4/isr_SW.c **** {
  55              		.loc 1 230 0
ARM GAS  C:\Users\ADMINI~1\AppData\Local\Temp\cc5ctvDq.s 			page 6


  56              		.cfi_startproc
  57              		@ args = 0, pretend = 0, frame = 0
  58              		@ frame_needed = 0, uses_anonymous_args = 0
  59              		@ link register save eliminated.
 231:Generated_Source\PSoC4/isr_SW.c ****     return CyRamVectors[CYINT_IRQ_BASE + isr_SW__INTC_NUMBER];
  60              		.loc 1 231 0
  61 0000 014B     		ldr	r3, .L5
  62 0002 986C     		ldr	r0, [r3, #72]
 232:Generated_Source\PSoC4/isr_SW.c **** }
  63              		.loc 1 232 0
  64              		@ sp needed
  65 0004 7047     		bx	lr
  66              	.L6:
  67 0006 C046     		.align	2
  68              	.L5:
  69 0008 00000000 		.word	CyRamVectors
  70              		.cfi_endproc
  71              	.LFE7:
  72              		.size	isr_SW_GetVector, .-isr_SW_GetVector
  73              		.section	.text.isr_SW_SetPriority,"ax",%progbits
  74              		.align	2
  75              		.global	isr_SW_SetPriority
  76              		.code	16
  77              		.thumb_func
  78              		.type	isr_SW_SetPriority, %function
  79              	isr_SW_SetPriority:
  80              	.LFB8:
 233:Generated_Source\PSoC4/isr_SW.c **** 
 234:Generated_Source\PSoC4/isr_SW.c **** 
 235:Generated_Source\PSoC4/isr_SW.c **** /*******************************************************************************
 236:Generated_Source\PSoC4/isr_SW.c **** * Function Name: isr_SW_SetPriority
 237:Generated_Source\PSoC4/isr_SW.c **** ********************************************************************************
 238:Generated_Source\PSoC4/isr_SW.c **** *
 239:Generated_Source\PSoC4/isr_SW.c **** * Summary:
 240:Generated_Source\PSoC4/isr_SW.c **** *   Sets the Priority of the Interrupt. 
 241:Generated_Source\PSoC4/isr_SW.c **** *
 242:Generated_Source\PSoC4/isr_SW.c **** *   Note calling isr_SW_Start or isr_SW_StartEx will 
 243:Generated_Source\PSoC4/isr_SW.c **** *   override any effect this API would have had. This API should only be called
 244:Generated_Source\PSoC4/isr_SW.c **** *   after isr_SW_Start or isr_SW_StartEx has been called. 
 245:Generated_Source\PSoC4/isr_SW.c **** *   To set the initial priority for the component, use the Design-Wide Resources
 246:Generated_Source\PSoC4/isr_SW.c **** *   Interrupt Editor.
 247:Generated_Source\PSoC4/isr_SW.c **** *
 248:Generated_Source\PSoC4/isr_SW.c **** *   Note This API has no effect on Non-maskable interrupt NMI).
 249:Generated_Source\PSoC4/isr_SW.c **** *
 250:Generated_Source\PSoC4/isr_SW.c **** * Parameters:
 251:Generated_Source\PSoC4/isr_SW.c **** *   priority: Priority of the interrupt, 0 being the highest priority
 252:Generated_Source\PSoC4/isr_SW.c **** *             PSoC 3 and PSoC 5LP: Priority is from 0 to 7.
 253:Generated_Source\PSoC4/isr_SW.c **** *             PSoC 4: Priority is from 0 to 3.
 254:Generated_Source\PSoC4/isr_SW.c **** *
 255:Generated_Source\PSoC4/isr_SW.c **** * Return:
 256:Generated_Source\PSoC4/isr_SW.c **** *   None
 257:Generated_Source\PSoC4/isr_SW.c **** *
 258:Generated_Source\PSoC4/isr_SW.c **** *******************************************************************************/
 259:Generated_Source\PSoC4/isr_SW.c **** void isr_SW_SetPriority(uint8 priority)
 260:Generated_Source\PSoC4/isr_SW.c **** {
  81              		.loc 1 260 0
  82              		.cfi_startproc
ARM GAS  C:\Users\ADMINI~1\AppData\Local\Temp\cc5ctvDq.s 			page 7


  83              		@ args = 0, pretend = 0, frame = 0
  84              		@ frame_needed = 0, uses_anonymous_args = 0
  85              	.LVL1:
  86 0000 10B5     		push	{r4, lr}
  87              		.cfi_def_cfa_offset 8
  88              		.cfi_offset 4, -8
  89              		.cfi_offset 14, -4
  90 0002 0400     		movs	r4, r0
  91              	.LVL2:
 261:Generated_Source\PSoC4/isr_SW.c **** 	uint8 interruptState;
 262:Generated_Source\PSoC4/isr_SW.c ****     uint32 priorityOffset = ((isr_SW__INTC_NUMBER % 4u) * 8u) + 6u;
 263:Generated_Source\PSoC4/isr_SW.c ****     
 264:Generated_Source\PSoC4/isr_SW.c **** 	interruptState = CyEnterCriticalSection();
  92              		.loc 1 264 0
  93 0004 FFF7FEFF 		bl	CyEnterCriticalSection
  94              	.LVL3:
 265:Generated_Source\PSoC4/isr_SW.c ****     *isr_SW_INTC_PRIOR = (*isr_SW_INTC_PRIOR & (uint32)(~isr_SW__INTC_PRIOR_MASK)) |
  95              		.loc 1 265 0
  96 0008 044A     		ldr	r2, .L8
  97 000a 1168     		ldr	r1, [r2]
  98 000c 044B     		ldr	r3, .L8+4
  99 000e 0B40     		ands	r3, r1
 266:Generated_Source\PSoC4/isr_SW.c ****                                     ((uint32)priority << priorityOffset);
 100              		.loc 1 266 0
 101 0010 A405     		lsls	r4, r4, #22
 265:Generated_Source\PSoC4/isr_SW.c ****     *isr_SW_INTC_PRIOR = (*isr_SW_INTC_PRIOR & (uint32)(~isr_SW__INTC_PRIOR_MASK)) |
 102              		.loc 1 265 0
 103 0012 1C43     		orrs	r4, r3
 104 0014 1460     		str	r4, [r2]
 267:Generated_Source\PSoC4/isr_SW.c **** 	CyExitCriticalSection(interruptState);
 105              		.loc 1 267 0
 106 0016 FFF7FEFF 		bl	CyExitCriticalSection
 107              	.LVL4:
 268:Generated_Source\PSoC4/isr_SW.c **** }
 108              		.loc 1 268 0
 109              		@ sp needed
 110 001a 10BD     		pop	{r4, pc}
 111              	.L9:
 112              		.align	2
 113              	.L8:
 114 001c 00E400E0 		.word	-536812544
 115 0020 FFFF3FFF 		.word	-12582913
 116              		.cfi_endproc
 117              	.LFE8:
 118              		.size	isr_SW_SetPriority, .-isr_SW_SetPriority
 119              		.section	.text.isr_SW_GetPriority,"ax",%progbits
 120              		.align	2
 121              		.global	isr_SW_GetPriority
 122              		.code	16
 123              		.thumb_func
 124              		.type	isr_SW_GetPriority, %function
 125              	isr_SW_GetPriority:
 126              	.LFB9:
 269:Generated_Source\PSoC4/isr_SW.c **** 
 270:Generated_Source\PSoC4/isr_SW.c **** 
 271:Generated_Source\PSoC4/isr_SW.c **** /*******************************************************************************
 272:Generated_Source\PSoC4/isr_SW.c **** * Function Name: isr_SW_GetPriority
ARM GAS  C:\Users\ADMINI~1\AppData\Local\Temp\cc5ctvDq.s 			page 8


 273:Generated_Source\PSoC4/isr_SW.c **** ********************************************************************************
 274:Generated_Source\PSoC4/isr_SW.c **** *
 275:Generated_Source\PSoC4/isr_SW.c **** * Summary:
 276:Generated_Source\PSoC4/isr_SW.c **** *   Gets the Priority of the Interrupt.
 277:Generated_Source\PSoC4/isr_SW.c **** *
 278:Generated_Source\PSoC4/isr_SW.c **** * Parameters:
 279:Generated_Source\PSoC4/isr_SW.c **** *   None
 280:Generated_Source\PSoC4/isr_SW.c **** *
 281:Generated_Source\PSoC4/isr_SW.c **** * Return:
 282:Generated_Source\PSoC4/isr_SW.c **** *   Priority of the interrupt, 0 being the highest priority
 283:Generated_Source\PSoC4/isr_SW.c **** *    PSoC 3 and PSoC 5LP: Priority is from 0 to 7.
 284:Generated_Source\PSoC4/isr_SW.c **** *    PSoC 4: Priority is from 0 to 3.
 285:Generated_Source\PSoC4/isr_SW.c **** *
 286:Generated_Source\PSoC4/isr_SW.c **** *******************************************************************************/
 287:Generated_Source\PSoC4/isr_SW.c **** uint8 isr_SW_GetPriority(void)
 288:Generated_Source\PSoC4/isr_SW.c **** {
 127              		.loc 1 288 0
 128              		.cfi_startproc
 129              		@ args = 0, pretend = 0, frame = 0
 130              		@ frame_needed = 0, uses_anonymous_args = 0
 131              		@ link register save eliminated.
 132              	.LVL5:
 289:Generated_Source\PSoC4/isr_SW.c ****     uint32 priority;
 290:Generated_Source\PSoC4/isr_SW.c **** 	uint32 priorityOffset = ((isr_SW__INTC_NUMBER % 4u) * 8u) + 6u;
 291:Generated_Source\PSoC4/isr_SW.c **** 
 292:Generated_Source\PSoC4/isr_SW.c ****     priority = (*isr_SW_INTC_PRIOR & isr_SW__INTC_PRIOR_MASK) >> priorityOffset;
 133              		.loc 1 292 0
 134 0000 024B     		ldr	r3, .L11
 135 0002 1868     		ldr	r0, [r3]
 136 0004 800D     		lsrs	r0, r0, #22
 137              	.LVL6:
 293:Generated_Source\PSoC4/isr_SW.c **** 
 294:Generated_Source\PSoC4/isr_SW.c ****     return (uint8)priority;
 138              		.loc 1 294 0
 139 0006 0323     		movs	r3, #3
 140 0008 1840     		ands	r0, r3
 141              	.LVL7:
 295:Generated_Source\PSoC4/isr_SW.c **** }
 142              		.loc 1 295 0
 143              		@ sp needed
 144 000a 7047     		bx	lr
 145              	.L12:
 146              		.align	2
 147              	.L11:
 148 000c 00E400E0 		.word	-536812544
 149              		.cfi_endproc
 150              	.LFE9:
 151              		.size	isr_SW_GetPriority, .-isr_SW_GetPriority
 152              		.section	.text.isr_SW_Enable,"ax",%progbits
 153              		.align	2
 154              		.global	isr_SW_Enable
 155              		.code	16
 156              		.thumb_func
 157              		.type	isr_SW_Enable, %function
 158              	isr_SW_Enable:
 159              	.LFB10:
 296:Generated_Source\PSoC4/isr_SW.c **** 
ARM GAS  C:\Users\ADMINI~1\AppData\Local\Temp\cc5ctvDq.s 			page 9


 297:Generated_Source\PSoC4/isr_SW.c **** 
 298:Generated_Source\PSoC4/isr_SW.c **** /*******************************************************************************
 299:Generated_Source\PSoC4/isr_SW.c **** * Function Name: isr_SW_Enable
 300:Generated_Source\PSoC4/isr_SW.c **** ********************************************************************************
 301:Generated_Source\PSoC4/isr_SW.c **** *
 302:Generated_Source\PSoC4/isr_SW.c **** * Summary:
 303:Generated_Source\PSoC4/isr_SW.c **** *   Enables the interrupt to the interrupt controller. Do not call this function
 304:Generated_Source\PSoC4/isr_SW.c **** *   unless ISR_Start() has been called or the functionality of the ISR_Start() 
 305:Generated_Source\PSoC4/isr_SW.c **** *   function, which sets the vector and the priority, has been called.
 306:Generated_Source\PSoC4/isr_SW.c **** *
 307:Generated_Source\PSoC4/isr_SW.c **** * Parameters:
 308:Generated_Source\PSoC4/isr_SW.c **** *   None
 309:Generated_Source\PSoC4/isr_SW.c **** *
 310:Generated_Source\PSoC4/isr_SW.c **** * Return:
 311:Generated_Source\PSoC4/isr_SW.c **** *   None
 312:Generated_Source\PSoC4/isr_SW.c **** *
 313:Generated_Source\PSoC4/isr_SW.c **** *******************************************************************************/
 314:Generated_Source\PSoC4/isr_SW.c **** void isr_SW_Enable(void)
 315:Generated_Source\PSoC4/isr_SW.c **** {
 160              		.loc 1 315 0
 161              		.cfi_startproc
 162              		@ args = 0, pretend = 0, frame = 0
 163              		@ frame_needed = 0, uses_anonymous_args = 0
 164              		@ link register save eliminated.
 316:Generated_Source\PSoC4/isr_SW.c ****     /* Enable the general interrupt. */
 317:Generated_Source\PSoC4/isr_SW.c ****     *isr_SW_INTC_SET_EN = isr_SW__INTC_MASK;
 165              		.loc 1 317 0
 166 0000 0422     		movs	r2, #4
 167 0002 014B     		ldr	r3, .L14
 168 0004 1A60     		str	r2, [r3]
 318:Generated_Source\PSoC4/isr_SW.c **** }
 169              		.loc 1 318 0
 170              		@ sp needed
 171 0006 7047     		bx	lr
 172              	.L15:
 173              		.align	2
 174              	.L14:
 175 0008 00E100E0 		.word	-536813312
 176              		.cfi_endproc
 177              	.LFE10:
 178              		.size	isr_SW_Enable, .-isr_SW_Enable
 179              		.section	.text.isr_SW_GetState,"ax",%progbits
 180              		.align	2
 181              		.global	isr_SW_GetState
 182              		.code	16
 183              		.thumb_func
 184              		.type	isr_SW_GetState, %function
 185              	isr_SW_GetState:
 186              	.LFB11:
 319:Generated_Source\PSoC4/isr_SW.c **** 
 320:Generated_Source\PSoC4/isr_SW.c **** 
 321:Generated_Source\PSoC4/isr_SW.c **** /*******************************************************************************
 322:Generated_Source\PSoC4/isr_SW.c **** * Function Name: isr_SW_GetState
 323:Generated_Source\PSoC4/isr_SW.c **** ********************************************************************************
 324:Generated_Source\PSoC4/isr_SW.c **** *
 325:Generated_Source\PSoC4/isr_SW.c **** * Summary:
 326:Generated_Source\PSoC4/isr_SW.c **** *   Gets the state (enabled, disabled) of the Interrupt.
ARM GAS  C:\Users\ADMINI~1\AppData\Local\Temp\cc5ctvDq.s 			page 10


 327:Generated_Source\PSoC4/isr_SW.c **** *
 328:Generated_Source\PSoC4/isr_SW.c **** * Parameters:
 329:Generated_Source\PSoC4/isr_SW.c **** *   None
 330:Generated_Source\PSoC4/isr_SW.c **** *
 331:Generated_Source\PSoC4/isr_SW.c **** * Return:
 332:Generated_Source\PSoC4/isr_SW.c **** *   1 if enabled, 0 if disabled.
 333:Generated_Source\PSoC4/isr_SW.c **** *
 334:Generated_Source\PSoC4/isr_SW.c **** *******************************************************************************/
 335:Generated_Source\PSoC4/isr_SW.c **** uint8 isr_SW_GetState(void)
 336:Generated_Source\PSoC4/isr_SW.c **** {
 187              		.loc 1 336 0
 188              		.cfi_startproc
 189              		@ args = 0, pretend = 0, frame = 0
 190              		@ frame_needed = 0, uses_anonymous_args = 0
 191              		@ link register save eliminated.
 337:Generated_Source\PSoC4/isr_SW.c ****     /* Get the state of the general interrupt. */
 338:Generated_Source\PSoC4/isr_SW.c ****     return ((*isr_SW_INTC_SET_EN & (uint32)isr_SW__INTC_MASK) != 0u) ? 1u:0u;
 192              		.loc 1 338 0
 193 0000 034B     		ldr	r3, .L19
 194 0002 1B68     		ldr	r3, [r3]
 195 0004 5B07     		lsls	r3, r3, #29
 196 0006 01D5     		bpl	.L18
 197 0008 0120     		movs	r0, #1
 198 000a 00E0     		b	.L17
 199              	.L18:
 200 000c 0020     		movs	r0, #0
 201              	.L17:
 339:Generated_Source\PSoC4/isr_SW.c **** }
 202              		.loc 1 339 0 discriminator 4
 203              		@ sp needed
 204 000e 7047     		bx	lr
 205              	.L20:
 206              		.align	2
 207              	.L19:
 208 0010 00E100E0 		.word	-536813312
 209              		.cfi_endproc
 210              	.LFE11:
 211              		.size	isr_SW_GetState, .-isr_SW_GetState
 212              		.section	.text.isr_SW_Disable,"ax",%progbits
 213              		.align	2
 214              		.global	isr_SW_Disable
 215              		.code	16
 216              		.thumb_func
 217              		.type	isr_SW_Disable, %function
 218              	isr_SW_Disable:
 219              	.LFB12:
 340:Generated_Source\PSoC4/isr_SW.c **** 
 341:Generated_Source\PSoC4/isr_SW.c **** 
 342:Generated_Source\PSoC4/isr_SW.c **** /*******************************************************************************
 343:Generated_Source\PSoC4/isr_SW.c **** * Function Name: isr_SW_Disable
 344:Generated_Source\PSoC4/isr_SW.c **** ********************************************************************************
 345:Generated_Source\PSoC4/isr_SW.c **** *
 346:Generated_Source\PSoC4/isr_SW.c **** * Summary:
 347:Generated_Source\PSoC4/isr_SW.c **** *   Disables the Interrupt in the interrupt controller.
 348:Generated_Source\PSoC4/isr_SW.c **** *
 349:Generated_Source\PSoC4/isr_SW.c **** * Parameters:
 350:Generated_Source\PSoC4/isr_SW.c **** *   None
ARM GAS  C:\Users\ADMINI~1\AppData\Local\Temp\cc5ctvDq.s 			page 11


 351:Generated_Source\PSoC4/isr_SW.c **** *
 352:Generated_Source\PSoC4/isr_SW.c **** * Return:
 353:Generated_Source\PSoC4/isr_SW.c **** *   None
 354:Generated_Source\PSoC4/isr_SW.c **** *
 355:Generated_Source\PSoC4/isr_SW.c **** *******************************************************************************/
 356:Generated_Source\PSoC4/isr_SW.c **** void isr_SW_Disable(void)
 357:Generated_Source\PSoC4/isr_SW.c **** {
 220              		.loc 1 357 0
 221              		.cfi_startproc
 222              		@ args = 0, pretend = 0, frame = 0
 223              		@ frame_needed = 0, uses_anonymous_args = 0
 224              		@ link register save eliminated.
 358:Generated_Source\PSoC4/isr_SW.c ****     /* Disable the general interrupt. */
 359:Generated_Source\PSoC4/isr_SW.c ****     *isr_SW_INTC_CLR_EN = isr_SW__INTC_MASK;
 225              		.loc 1 359 0
 226 0000 0422     		movs	r2, #4
 227 0002 014B     		ldr	r3, .L22
 228 0004 1A60     		str	r2, [r3]
 360:Generated_Source\PSoC4/isr_SW.c **** }
 229              		.loc 1 360 0
 230              		@ sp needed
 231 0006 7047     		bx	lr
 232              	.L23:
 233              		.align	2
 234              	.L22:
 235 0008 80E100E0 		.word	-536813184
 236              		.cfi_endproc
 237              	.LFE12:
 238              		.size	isr_SW_Disable, .-isr_SW_Disable
 239              		.section	.text.isr_SW_Start,"ax",%progbits
 240              		.align	2
 241              		.global	isr_SW_Start
 242              		.code	16
 243              		.thumb_func
 244              		.type	isr_SW_Start, %function
 245              	isr_SW_Start:
 246              	.LFB2:
  58:Generated_Source\PSoC4/isr_SW.c ****     /* For all we know the interrupt is active. */
 247              		.loc 1 58 0
 248              		.cfi_startproc
 249              		@ args = 0, pretend = 0, frame = 0
 250              		@ frame_needed = 0, uses_anonymous_args = 0
 251 0000 10B5     		push	{r4, lr}
 252              		.cfi_def_cfa_offset 8
 253              		.cfi_offset 4, -8
 254              		.cfi_offset 14, -4
  60:Generated_Source\PSoC4/isr_SW.c **** 
 255              		.loc 1 60 0
 256 0002 FFF7FEFF 		bl	isr_SW_Disable
 257              	.LVL8:
  63:Generated_Source\PSoC4/isr_SW.c **** 
 258              		.loc 1 63 0
 259 0006 0448     		ldr	r0, .L25
 260 0008 FFF7FEFF 		bl	isr_SW_SetVector
 261              	.LVL9:
  66:Generated_Source\PSoC4/isr_SW.c **** 
 262              		.loc 1 66 0
ARM GAS  C:\Users\ADMINI~1\AppData\Local\Temp\cc5ctvDq.s 			page 12


 263 000c 0320     		movs	r0, #3
 264 000e FFF7FEFF 		bl	isr_SW_SetPriority
 265              	.LVL10:
  69:Generated_Source\PSoC4/isr_SW.c **** }
 266              		.loc 1 69 0
 267 0012 FFF7FEFF 		bl	isr_SW_Enable
 268              	.LVL11:
  70:Generated_Source\PSoC4/isr_SW.c **** 
 269              		.loc 1 70 0
 270              		@ sp needed
 271 0016 10BD     		pop	{r4, pc}
 272              	.L26:
 273              		.align	2
 274              	.L25:
 275 0018 00000000 		.word	isr_SW_Interrupt
 276              		.cfi_endproc
 277              	.LFE2:
 278              		.size	isr_SW_Start, .-isr_SW_Start
 279              		.section	.text.isr_SW_StartEx,"ax",%progbits
 280              		.align	2
 281              		.global	isr_SW_StartEx
 282              		.code	16
 283              		.thumb_func
 284              		.type	isr_SW_StartEx, %function
 285              	isr_SW_StartEx:
 286              	.LFB3:
 101:Generated_Source\PSoC4/isr_SW.c ****     /* For all we know the interrupt is active. */
 287              		.loc 1 101 0
 288              		.cfi_startproc
 289              		@ args = 0, pretend = 0, frame = 0
 290              		@ frame_needed = 0, uses_anonymous_args = 0
 291              	.LVL12:
 292 0000 10B5     		push	{r4, lr}
 293              		.cfi_def_cfa_offset 8
 294              		.cfi_offset 4, -8
 295              		.cfi_offset 14, -4
 296 0002 0400     		movs	r4, r0
 103:Generated_Source\PSoC4/isr_SW.c **** 
 297              		.loc 1 103 0
 298 0004 FFF7FEFF 		bl	isr_SW_Disable
 299              	.LVL13:
 106:Generated_Source\PSoC4/isr_SW.c **** 
 300              		.loc 1 106 0
 301 0008 2000     		movs	r0, r4
 302 000a FFF7FEFF 		bl	isr_SW_SetVector
 303              	.LVL14:
 109:Generated_Source\PSoC4/isr_SW.c **** 
 304              		.loc 1 109 0
 305 000e 0320     		movs	r0, #3
 306 0010 FFF7FEFF 		bl	isr_SW_SetPriority
 307              	.LVL15:
 112:Generated_Source\PSoC4/isr_SW.c **** }
 308              		.loc 1 112 0
 309 0014 FFF7FEFF 		bl	isr_SW_Enable
 310              	.LVL16:
 113:Generated_Source\PSoC4/isr_SW.c **** 
 311              		.loc 1 113 0
ARM GAS  C:\Users\ADMINI~1\AppData\Local\Temp\cc5ctvDq.s 			page 13


 312              		@ sp needed
 313              	.LVL17:
 314 0018 10BD     		pop	{r4, pc}
 315              		.cfi_endproc
 316              	.LFE3:
 317              		.size	isr_SW_StartEx, .-isr_SW_StartEx
 318 001a C046     		.section	.text.isr_SW_Stop,"ax",%progbits
 319              		.align	2
 320              		.global	isr_SW_Stop
 321              		.code	16
 322              		.thumb_func
 323              		.type	isr_SW_Stop, %function
 324              	isr_SW_Stop:
 325              	.LFB4:
 131:Generated_Source\PSoC4/isr_SW.c ****     /* Disable this interrupt. */
 326              		.loc 1 131 0
 327              		.cfi_startproc
 328              		@ args = 0, pretend = 0, frame = 0
 329              		@ frame_needed = 0, uses_anonymous_args = 0
 330 0000 10B5     		push	{r4, lr}
 331              		.cfi_def_cfa_offset 8
 332              		.cfi_offset 4, -8
 333              		.cfi_offset 14, -4
 133:Generated_Source\PSoC4/isr_SW.c **** 
 334              		.loc 1 133 0
 335 0002 FFF7FEFF 		bl	isr_SW_Disable
 336              	.LVL18:
 136:Generated_Source\PSoC4/isr_SW.c **** }
 337              		.loc 1 136 0
 338 0006 0248     		ldr	r0, .L29
 339 0008 FFF7FEFF 		bl	isr_SW_SetVector
 340              	.LVL19:
 137:Generated_Source\PSoC4/isr_SW.c **** 
 341              		.loc 1 137 0
 342              		@ sp needed
 343 000c 10BD     		pop	{r4, pc}
 344              	.L30:
 345 000e C046     		.align	2
 346              	.L29:
 347 0010 00000000 		.word	IntDefaultHandler
 348              		.cfi_endproc
 349              	.LFE4:
 350              		.size	isr_SW_Stop, .-isr_SW_Stop
 351              		.section	.text.isr_SW_SetPending,"ax",%progbits
 352              		.align	2
 353              		.global	isr_SW_SetPending
 354              		.code	16
 355              		.thumb_func
 356              		.type	isr_SW_SetPending, %function
 357              	isr_SW_SetPending:
 358              	.LFB13:
 361:Generated_Source\PSoC4/isr_SW.c **** 
 362:Generated_Source\PSoC4/isr_SW.c **** 
 363:Generated_Source\PSoC4/isr_SW.c **** /*******************************************************************************
 364:Generated_Source\PSoC4/isr_SW.c **** * Function Name: isr_SW_SetPending
 365:Generated_Source\PSoC4/isr_SW.c **** ********************************************************************************
 366:Generated_Source\PSoC4/isr_SW.c **** *
ARM GAS  C:\Users\ADMINI~1\AppData\Local\Temp\cc5ctvDq.s 			page 14


 367:Generated_Source\PSoC4/isr_SW.c **** * Summary:
 368:Generated_Source\PSoC4/isr_SW.c **** *   Causes the Interrupt to enter the pending state, a software method of
 369:Generated_Source\PSoC4/isr_SW.c **** *   generating the interrupt.
 370:Generated_Source\PSoC4/isr_SW.c **** *
 371:Generated_Source\PSoC4/isr_SW.c **** * Parameters:
 372:Generated_Source\PSoC4/isr_SW.c **** *   None
 373:Generated_Source\PSoC4/isr_SW.c **** *
 374:Generated_Source\PSoC4/isr_SW.c **** * Return:
 375:Generated_Source\PSoC4/isr_SW.c **** *   None
 376:Generated_Source\PSoC4/isr_SW.c **** *
 377:Generated_Source\PSoC4/isr_SW.c **** * Side Effects:
 378:Generated_Source\PSoC4/isr_SW.c **** *   If interrupts are enabled and the interrupt is set up properly, the ISR is
 379:Generated_Source\PSoC4/isr_SW.c **** *   entered (depending on the priority of this interrupt and other pending 
 380:Generated_Source\PSoC4/isr_SW.c **** *   interrupts).
 381:Generated_Source\PSoC4/isr_SW.c **** *
 382:Generated_Source\PSoC4/isr_SW.c **** *******************************************************************************/
 383:Generated_Source\PSoC4/isr_SW.c **** void isr_SW_SetPending(void)
 384:Generated_Source\PSoC4/isr_SW.c **** {
 359              		.loc 1 384 0
 360              		.cfi_startproc
 361              		@ args = 0, pretend = 0, frame = 0
 362              		@ frame_needed = 0, uses_anonymous_args = 0
 363              		@ link register save eliminated.
 385:Generated_Source\PSoC4/isr_SW.c ****     *isr_SW_INTC_SET_PD = isr_SW__INTC_MASK;
 364              		.loc 1 385 0
 365 0000 0422     		movs	r2, #4
 366 0002 014B     		ldr	r3, .L32
 367 0004 1A60     		str	r2, [r3]
 386:Generated_Source\PSoC4/isr_SW.c **** }
 368              		.loc 1 386 0
 369              		@ sp needed
 370 0006 7047     		bx	lr
 371              	.L33:
 372              		.align	2
 373              	.L32:
 374 0008 00E200E0 		.word	-536813056
 375              		.cfi_endproc
 376              	.LFE13:
 377              		.size	isr_SW_SetPending, .-isr_SW_SetPending
 378              		.section	.text.isr_SW_ClearPending,"ax",%progbits
 379              		.align	2
 380              		.global	isr_SW_ClearPending
 381              		.code	16
 382              		.thumb_func
 383              		.type	isr_SW_ClearPending, %function
 384              	isr_SW_ClearPending:
 385              	.LFB14:
 387:Generated_Source\PSoC4/isr_SW.c **** 
 388:Generated_Source\PSoC4/isr_SW.c **** 
 389:Generated_Source\PSoC4/isr_SW.c **** /*******************************************************************************
 390:Generated_Source\PSoC4/isr_SW.c **** * Function Name: isr_SW_ClearPending
 391:Generated_Source\PSoC4/isr_SW.c **** ********************************************************************************
 392:Generated_Source\PSoC4/isr_SW.c **** *
 393:Generated_Source\PSoC4/isr_SW.c **** * Summary:
 394:Generated_Source\PSoC4/isr_SW.c **** *   Clears a pending interrupt in the interrupt controller.
 395:Generated_Source\PSoC4/isr_SW.c **** *
 396:Generated_Source\PSoC4/isr_SW.c **** *   Note Some interrupt sources are clear-on-read and require the block 
ARM GAS  C:\Users\ADMINI~1\AppData\Local\Temp\cc5ctvDq.s 			page 15


 397:Generated_Source\PSoC4/isr_SW.c **** *   interrupt/status register to be read/cleared with the appropriate block API 
 398:Generated_Source\PSoC4/isr_SW.c **** *   (GPIO, UART, and so on). Otherwise the ISR will continue to remain in 
 399:Generated_Source\PSoC4/isr_SW.c **** *   pending state even though the interrupt itself is cleared using this API.
 400:Generated_Source\PSoC4/isr_SW.c **** *
 401:Generated_Source\PSoC4/isr_SW.c **** * Parameters:
 402:Generated_Source\PSoC4/isr_SW.c **** *   None
 403:Generated_Source\PSoC4/isr_SW.c **** *
 404:Generated_Source\PSoC4/isr_SW.c **** * Return:
 405:Generated_Source\PSoC4/isr_SW.c **** *   None
 406:Generated_Source\PSoC4/isr_SW.c **** *
 407:Generated_Source\PSoC4/isr_SW.c **** *******************************************************************************/
 408:Generated_Source\PSoC4/isr_SW.c **** void isr_SW_ClearPending(void)
 409:Generated_Source\PSoC4/isr_SW.c **** {
 386              		.loc 1 409 0
 387              		.cfi_startproc
 388              		@ args = 0, pretend = 0, frame = 0
 389              		@ frame_needed = 0, uses_anonymous_args = 0
 390              		@ link register save eliminated.
 410:Generated_Source\PSoC4/isr_SW.c ****     *isr_SW_INTC_CLR_PD = isr_SW__INTC_MASK;
 391              		.loc 1 410 0
 392 0000 0422     		movs	r2, #4
 393 0002 014B     		ldr	r3, .L35
 394 0004 1A60     		str	r2, [r3]
 411:Generated_Source\PSoC4/isr_SW.c **** }
 395              		.loc 1 411 0
 396              		@ sp needed
 397 0006 7047     		bx	lr
 398              	.L36:
 399              		.align	2
 400              	.L35:
 401 0008 80E200E0 		.word	-536812928
 402              		.cfi_endproc
 403              	.LFE14:
 404              		.size	isr_SW_ClearPending, .-isr_SW_ClearPending
 405              		.section	.text.isr_SW_Interrupt,"ax",%progbits
 406              		.align	2
 407              		.global	isr_SW_Interrupt
 408              		.code	16
 409              		.thumb_func
 410              		.type	isr_SW_Interrupt, %function
 411              	isr_SW_Interrupt:
 412              	.LFB5:
 161:Generated_Source\PSoC4/isr_SW.c ****     #ifdef isr_SW_INTERRUPT_INTERRUPT_CALLBACK
 413              		.loc 1 161 0
 414              		.cfi_startproc
 415              		@ args = 0, pretend = 0, frame = 0
 416              		@ frame_needed = 0, uses_anonymous_args = 0
 417 0000 10B5     		push	{r4, lr}
 418              		.cfi_def_cfa_offset 8
 419              		.cfi_offset 4, -8
 420              		.cfi_offset 14, -4
 168:Generated_Source\PSoC4/isr_SW.c ****     SW_ClearInterrupt();
 421              		.loc 1 168 0
 422 0002 FFF7FEFF 		bl	isr_SW_ClearPending
 423              	.LVL20:
 169:Generated_Source\PSoC4/isr_SW.c **** 	LED_Status_Wakeup();
 424              		.loc 1 169 0
ARM GAS  C:\Users\ADMINI~1\AppData\Local\Temp\cc5ctvDq.s 			page 16


 425 0006 FFF7FEFF 		bl	SW_ClearInterrupt
 426              	.LVL21:
 170:Generated_Source\PSoC4/isr_SW.c **** 	SW_Wakeup();
 427              		.loc 1 170 0
 428 000a FFF7FEFF 		bl	LED_Status_Wakeup
 429              	.LVL22:
 171:Generated_Source\PSoC4/isr_SW.c **** 	//用来指示唤醒状态
 430              		.loc 1 171 0
 431 000e FFF7FEFF 		bl	SW_Wakeup
 432              	.LVL23:
 173:Generated_Source\PSoC4/isr_SW.c **** 	CyDelay(100);
 433              		.loc 1 173 0
 434 0012 0020     		movs	r0, #0
 435 0014 FFF7FEFF 		bl	LED_Status_Write
 436              	.LVL24:
 174:Generated_Source\PSoC4/isr_SW.c ****     LED_Status_Write(1);
 437              		.loc 1 174 0
 438 0018 6420     		movs	r0, #100
 439 001a FFF7FEFF 		bl	CyDelay
 440              	.LVL25:
 175:Generated_Source\PSoC4/isr_SW.c **** 	CyDelay(100);
 441              		.loc 1 175 0
 442 001e 0120     		movs	r0, #1
 443 0020 FFF7FEFF 		bl	LED_Status_Write
 444              	.LVL26:
 176:Generated_Source\PSoC4/isr_SW.c **** 	
 445              		.loc 1 176 0
 446 0024 6420     		movs	r0, #100
 447 0026 FFF7FEFF 		bl	CyDelay
 448              	.LVL27:
 179:Generated_Source\PSoC4/isr_SW.c **** 
 449              		.loc 1 179 0
 450              		@ sp needed
 451 002a 10BD     		pop	{r4, pc}
 452              		.cfi_endproc
 453              	.LFE5:
 454              		.size	isr_SW_Interrupt, .-isr_SW_Interrupt
 455              		.text
 456              	.Letext0:
 457              		.file 2 "Generated_Source\\PSoC4/cytypes.h"
 458              		.file 3 "Generated_Source\\PSoC4/CyLib.h"
 459              		.file 4 "Generated_Source\\PSoC4\\SW.h"
 460              		.file 5 "Generated_Source\\PSoC4\\LED_Status.h"