ARM GAS  C:\Users\ADMINI~1\AppData\Local\Temp\cc30I6Th.s 			page 1


   1              		.syntax unified
   2              		.cpu cortex-m0
   3              		.fpu softvfp
   4              		.eabi_attribute 20, 1
   5              		.eabi_attribute 21, 1
   6              		.eabi_attribute 23, 3
   7              		.eabi_attribute 24, 1
   8              		.eabi_attribute 25, 1
   9              		.eabi_attribute 26, 1
  10              		.eabi_attribute 30, 1
  11              		.eabi_attribute 34, 0
  12              		.eabi_attribute 18, 4
  13              		.thumb
  14              		.syntax unified
  15              		.file	"isr_Sw.c"
  16              		.text
  17              	.Ltext0:
  18              		.cfi_sections	.debug_frame
  19              		.section	.text.isr_Sw_SetVector,"ax",%progbits
  20              		.align	2
  21              		.global	isr_Sw_SetVector
  22              		.code	16
  23              		.thumb_func
  24              		.type	isr_Sw_SetVector, %function
  25              	isr_Sw_SetVector:
  26              	.LFB6:
  27              		.file 1 "Generated_Source\\PSoC4\\isr_Sw.c"
   1:Generated_Source\PSoC4/isr_Sw.c **** /*******************************************************************************
   2:Generated_Source\PSoC4/isr_Sw.c **** * File Name: isr_Sw.c  
   3:Generated_Source\PSoC4/isr_Sw.c **** * Version 1.70
   4:Generated_Source\PSoC4/isr_Sw.c **** *
   5:Generated_Source\PSoC4/isr_Sw.c **** *  Description:
   6:Generated_Source\PSoC4/isr_Sw.c **** *   API for controlling the state of an interrupt.
   7:Generated_Source\PSoC4/isr_Sw.c **** *
   8:Generated_Source\PSoC4/isr_Sw.c **** *
   9:Generated_Source\PSoC4/isr_Sw.c **** *  Note:
  10:Generated_Source\PSoC4/isr_Sw.c **** *
  11:Generated_Source\PSoC4/isr_Sw.c **** ********************************************************************************
  12:Generated_Source\PSoC4/isr_Sw.c **** * Copyright 2008-2015, Cypress Semiconductor Corporation.  All rights reserved.
  13:Generated_Source\PSoC4/isr_Sw.c **** * You may use this file only in accordance with the license, terms, conditions, 
  14:Generated_Source\PSoC4/isr_Sw.c **** * disclaimers, and limitations in the end user license agreement accompanying 
  15:Generated_Source\PSoC4/isr_Sw.c **** * the software package with which this file was provided.
  16:Generated_Source\PSoC4/isr_Sw.c **** *******************************************************************************/
  17:Generated_Source\PSoC4/isr_Sw.c **** 
  18:Generated_Source\PSoC4/isr_Sw.c **** 
  19:Generated_Source\PSoC4/isr_Sw.c **** #include <cydevice_trm.h>
  20:Generated_Source\PSoC4/isr_Sw.c **** #include <CyLib.h>
  21:Generated_Source\PSoC4/isr_Sw.c **** #include <isr_Sw.h>
  22:Generated_Source\PSoC4/isr_Sw.c **** #include "cyapicallbacks.h"
  23:Generated_Source\PSoC4/isr_Sw.c **** #include "SW.h"
  24:Generated_Source\PSoC4/isr_Sw.c **** #if !defined(isr_Sw__REMOVED) /* Check for removal by optimization */
  25:Generated_Source\PSoC4/isr_Sw.c **** 
  26:Generated_Source\PSoC4/isr_Sw.c **** /*******************************************************************************
  27:Generated_Source\PSoC4/isr_Sw.c **** *  Place your includes, defines and code here 
  28:Generated_Source\PSoC4/isr_Sw.c **** ********************************************************************************/
  29:Generated_Source\PSoC4/isr_Sw.c **** /* `#START isr_Sw_intc` */
  30:Generated_Source\PSoC4/isr_Sw.c **** 
ARM GAS  C:\Users\ADMINI~1\AppData\Local\Temp\cc30I6Th.s 			page 2


  31:Generated_Source\PSoC4/isr_Sw.c **** /* `#END` */
  32:Generated_Source\PSoC4/isr_Sw.c **** 
  33:Generated_Source\PSoC4/isr_Sw.c **** extern cyisraddress CyRamVectors[CYINT_IRQ_BASE + CY_NUM_INTERRUPTS];
  34:Generated_Source\PSoC4/isr_Sw.c **** 
  35:Generated_Source\PSoC4/isr_Sw.c **** /* Declared in startup, used to set unused interrupts to. */
  36:Generated_Source\PSoC4/isr_Sw.c **** CY_ISR_PROTO(IntDefaultHandler);
  37:Generated_Source\PSoC4/isr_Sw.c **** 
  38:Generated_Source\PSoC4/isr_Sw.c **** 
  39:Generated_Source\PSoC4/isr_Sw.c **** /*******************************************************************************
  40:Generated_Source\PSoC4/isr_Sw.c **** * Function Name: isr_Sw_Start
  41:Generated_Source\PSoC4/isr_Sw.c **** ********************************************************************************
  42:Generated_Source\PSoC4/isr_Sw.c **** *
  43:Generated_Source\PSoC4/isr_Sw.c **** * Summary:
  44:Generated_Source\PSoC4/isr_Sw.c **** *  Set up the interrupt and enable it. This function disables the interrupt, 
  45:Generated_Source\PSoC4/isr_Sw.c **** *  sets the default interrupt vector, sets the priority from the value in the
  46:Generated_Source\PSoC4/isr_Sw.c **** *  Design Wide Resources Interrupt Editor, then enables the interrupt to the 
  47:Generated_Source\PSoC4/isr_Sw.c **** *  interrupt controller.
  48:Generated_Source\PSoC4/isr_Sw.c **** *
  49:Generated_Source\PSoC4/isr_Sw.c **** * Parameters:  
  50:Generated_Source\PSoC4/isr_Sw.c **** *   None
  51:Generated_Source\PSoC4/isr_Sw.c **** *
  52:Generated_Source\PSoC4/isr_Sw.c **** * Return:
  53:Generated_Source\PSoC4/isr_Sw.c **** *   None
  54:Generated_Source\PSoC4/isr_Sw.c **** *
  55:Generated_Source\PSoC4/isr_Sw.c **** *******************************************************************************/
  56:Generated_Source\PSoC4/isr_Sw.c **** void isr_Sw_Start(void)
  57:Generated_Source\PSoC4/isr_Sw.c **** {
  58:Generated_Source\PSoC4/isr_Sw.c ****     /* For all we know the interrupt is active. */
  59:Generated_Source\PSoC4/isr_Sw.c ****     isr_Sw_Disable();
  60:Generated_Source\PSoC4/isr_Sw.c **** 
  61:Generated_Source\PSoC4/isr_Sw.c ****     /* Set the ISR to point to the isr_Sw Interrupt. */
  62:Generated_Source\PSoC4/isr_Sw.c ****     isr_Sw_SetVector(&isr_Sw_Interrupt);
  63:Generated_Source\PSoC4/isr_Sw.c **** 
  64:Generated_Source\PSoC4/isr_Sw.c ****     /* Set the priority. */
  65:Generated_Source\PSoC4/isr_Sw.c ****     isr_Sw_SetPriority((uint8)isr_Sw_INTC_PRIOR_NUMBER);
  66:Generated_Source\PSoC4/isr_Sw.c **** 
  67:Generated_Source\PSoC4/isr_Sw.c ****     /* Enable it. */
  68:Generated_Source\PSoC4/isr_Sw.c ****     isr_Sw_Enable();
  69:Generated_Source\PSoC4/isr_Sw.c **** }
  70:Generated_Source\PSoC4/isr_Sw.c **** 
  71:Generated_Source\PSoC4/isr_Sw.c **** 
  72:Generated_Source\PSoC4/isr_Sw.c **** /*******************************************************************************
  73:Generated_Source\PSoC4/isr_Sw.c **** * Function Name: isr_Sw_StartEx
  74:Generated_Source\PSoC4/isr_Sw.c **** ********************************************************************************
  75:Generated_Source\PSoC4/isr_Sw.c **** *
  76:Generated_Source\PSoC4/isr_Sw.c **** * Summary:
  77:Generated_Source\PSoC4/isr_Sw.c **** *  Sets up the interrupt and enables it. This function disables the interrupt,
  78:Generated_Source\PSoC4/isr_Sw.c **** *  sets the interrupt vector based on the address passed in, sets the priority 
  79:Generated_Source\PSoC4/isr_Sw.c **** *  from the value in the Design Wide Resources Interrupt Editor, then enables 
  80:Generated_Source\PSoC4/isr_Sw.c **** *  the interrupt to the interrupt controller.
  81:Generated_Source\PSoC4/isr_Sw.c **** *  
  82:Generated_Source\PSoC4/isr_Sw.c **** *  When defining ISR functions, the CY_ISR and CY_ISR_PROTO macros should be 
  83:Generated_Source\PSoC4/isr_Sw.c **** *  used to provide consistent definition across compilers:
  84:Generated_Source\PSoC4/isr_Sw.c **** *  
  85:Generated_Source\PSoC4/isr_Sw.c **** *  Function definition example:
  86:Generated_Source\PSoC4/isr_Sw.c **** *   CY_ISR(MyISR)
  87:Generated_Source\PSoC4/isr_Sw.c **** *   {
ARM GAS  C:\Users\ADMINI~1\AppData\Local\Temp\cc30I6Th.s 			page 3


  88:Generated_Source\PSoC4/isr_Sw.c **** *   }
  89:Generated_Source\PSoC4/isr_Sw.c **** *   Function prototype example:
  90:Generated_Source\PSoC4/isr_Sw.c **** *   CY_ISR_PROTO(MyISR);
  91:Generated_Source\PSoC4/isr_Sw.c **** *
  92:Generated_Source\PSoC4/isr_Sw.c **** * Parameters:  
  93:Generated_Source\PSoC4/isr_Sw.c **** *   address: Address of the ISR to set in the interrupt vector table.
  94:Generated_Source\PSoC4/isr_Sw.c **** *
  95:Generated_Source\PSoC4/isr_Sw.c **** * Return:
  96:Generated_Source\PSoC4/isr_Sw.c **** *   None
  97:Generated_Source\PSoC4/isr_Sw.c **** *
  98:Generated_Source\PSoC4/isr_Sw.c **** *******************************************************************************/
  99:Generated_Source\PSoC4/isr_Sw.c **** void isr_Sw_StartEx(cyisraddress address)
 100:Generated_Source\PSoC4/isr_Sw.c **** {
 101:Generated_Source\PSoC4/isr_Sw.c ****     /* For all we know the interrupt is active. */
 102:Generated_Source\PSoC4/isr_Sw.c ****     isr_Sw_Disable();
 103:Generated_Source\PSoC4/isr_Sw.c **** 
 104:Generated_Source\PSoC4/isr_Sw.c ****     /* Set the ISR to point to the isr_Sw Interrupt. */
 105:Generated_Source\PSoC4/isr_Sw.c ****     isr_Sw_SetVector(address);
 106:Generated_Source\PSoC4/isr_Sw.c **** 
 107:Generated_Source\PSoC4/isr_Sw.c ****     /* Set the priority. */
 108:Generated_Source\PSoC4/isr_Sw.c ****     isr_Sw_SetPriority((uint8)isr_Sw_INTC_PRIOR_NUMBER);
 109:Generated_Source\PSoC4/isr_Sw.c **** 
 110:Generated_Source\PSoC4/isr_Sw.c ****     /* Enable it. */
 111:Generated_Source\PSoC4/isr_Sw.c ****     isr_Sw_Enable();
 112:Generated_Source\PSoC4/isr_Sw.c **** }
 113:Generated_Source\PSoC4/isr_Sw.c **** 
 114:Generated_Source\PSoC4/isr_Sw.c **** 
 115:Generated_Source\PSoC4/isr_Sw.c **** /*******************************************************************************
 116:Generated_Source\PSoC4/isr_Sw.c **** * Function Name: isr_Sw_Stop
 117:Generated_Source\PSoC4/isr_Sw.c **** ********************************************************************************
 118:Generated_Source\PSoC4/isr_Sw.c **** *
 119:Generated_Source\PSoC4/isr_Sw.c **** * Summary:
 120:Generated_Source\PSoC4/isr_Sw.c **** *   Disables and removes the interrupt.
 121:Generated_Source\PSoC4/isr_Sw.c **** *
 122:Generated_Source\PSoC4/isr_Sw.c **** * Parameters:  
 123:Generated_Source\PSoC4/isr_Sw.c **** *   None
 124:Generated_Source\PSoC4/isr_Sw.c **** *
 125:Generated_Source\PSoC4/isr_Sw.c **** * Return:
 126:Generated_Source\PSoC4/isr_Sw.c **** *   None
 127:Generated_Source\PSoC4/isr_Sw.c **** *
 128:Generated_Source\PSoC4/isr_Sw.c **** *******************************************************************************/
 129:Generated_Source\PSoC4/isr_Sw.c **** void isr_Sw_Stop(void)
 130:Generated_Source\PSoC4/isr_Sw.c **** {
 131:Generated_Source\PSoC4/isr_Sw.c ****     /* Disable this interrupt. */
 132:Generated_Source\PSoC4/isr_Sw.c ****     isr_Sw_Disable();
 133:Generated_Source\PSoC4/isr_Sw.c **** 
 134:Generated_Source\PSoC4/isr_Sw.c ****     /* Set the ISR to point to the passive one. */
 135:Generated_Source\PSoC4/isr_Sw.c ****     isr_Sw_SetVector(&IntDefaultHandler);
 136:Generated_Source\PSoC4/isr_Sw.c **** }
 137:Generated_Source\PSoC4/isr_Sw.c **** 
 138:Generated_Source\PSoC4/isr_Sw.c **** 
 139:Generated_Source\PSoC4/isr_Sw.c **** /*******************************************************************************
 140:Generated_Source\PSoC4/isr_Sw.c **** * Function Name: isr_Sw_Interrupt
 141:Generated_Source\PSoC4/isr_Sw.c **** ********************************************************************************
 142:Generated_Source\PSoC4/isr_Sw.c **** *
 143:Generated_Source\PSoC4/isr_Sw.c **** * Summary:
 144:Generated_Source\PSoC4/isr_Sw.c **** *   The default Interrupt Service Routine for isr_Sw.
ARM GAS  C:\Users\ADMINI~1\AppData\Local\Temp\cc30I6Th.s 			page 4


 145:Generated_Source\PSoC4/isr_Sw.c **** *
 146:Generated_Source\PSoC4/isr_Sw.c **** *   Add custom code between the START and END comments to keep the next version
 147:Generated_Source\PSoC4/isr_Sw.c **** *   of this file from over-writing your code.
 148:Generated_Source\PSoC4/isr_Sw.c **** *
 149:Generated_Source\PSoC4/isr_Sw.c **** *   Note You may use either the default ISR by using this API, or you may define
 150:Generated_Source\PSoC4/isr_Sw.c **** *   your own separate ISR through ISR_StartEx().
 151:Generated_Source\PSoC4/isr_Sw.c **** *
 152:Generated_Source\PSoC4/isr_Sw.c **** * Parameters:  
 153:Generated_Source\PSoC4/isr_Sw.c **** *   None
 154:Generated_Source\PSoC4/isr_Sw.c **** *
 155:Generated_Source\PSoC4/isr_Sw.c **** * Return:
 156:Generated_Source\PSoC4/isr_Sw.c **** *   None
 157:Generated_Source\PSoC4/isr_Sw.c **** *
 158:Generated_Source\PSoC4/isr_Sw.c **** *******************************************************************************/
 159:Generated_Source\PSoC4/isr_Sw.c **** CY_ISR(isr_Sw_Interrupt)
 160:Generated_Source\PSoC4/isr_Sw.c **** {
 161:Generated_Source\PSoC4/isr_Sw.c ****     #ifdef isr_Sw_INTERRUPT_INTERRUPT_CALLBACK
 162:Generated_Source\PSoC4/isr_Sw.c ****         isr_Sw_Interrupt_InterruptCallback();
 163:Generated_Source\PSoC4/isr_Sw.c ****     #endif /* isr_Sw_INTERRUPT_INTERRUPT_CALLBACK */ 
 164:Generated_Source\PSoC4/isr_Sw.c **** 
 165:Generated_Source\PSoC4/isr_Sw.c ****     /*  Place your Interrupt code here. */
 166:Generated_Source\PSoC4/isr_Sw.c ****     /* `#START isr_Sw_Interrupt` */
 167:Generated_Source\PSoC4/isr_Sw.c **** 	SW_ClearInterrupt();
 168:Generated_Source\PSoC4/isr_Sw.c **** 	isr_Sw_ClearPending();
 169:Generated_Source\PSoC4/isr_Sw.c ****     /* `#END` */
 170:Generated_Source\PSoC4/isr_Sw.c **** }
 171:Generated_Source\PSoC4/isr_Sw.c **** 
 172:Generated_Source\PSoC4/isr_Sw.c **** 
 173:Generated_Source\PSoC4/isr_Sw.c **** /*******************************************************************************
 174:Generated_Source\PSoC4/isr_Sw.c **** * Function Name: isr_Sw_SetVector
 175:Generated_Source\PSoC4/isr_Sw.c **** ********************************************************************************
 176:Generated_Source\PSoC4/isr_Sw.c **** *
 177:Generated_Source\PSoC4/isr_Sw.c **** * Summary:
 178:Generated_Source\PSoC4/isr_Sw.c **** *   Change the ISR vector for the Interrupt. Note calling isr_Sw_Start
 179:Generated_Source\PSoC4/isr_Sw.c **** *   will override any effect this method would have had. To set the vector 
 180:Generated_Source\PSoC4/isr_Sw.c **** *   before the component has been started use isr_Sw_StartEx instead.
 181:Generated_Source\PSoC4/isr_Sw.c **** * 
 182:Generated_Source\PSoC4/isr_Sw.c **** *   When defining ISR functions, the CY_ISR and CY_ISR_PROTO macros should be 
 183:Generated_Source\PSoC4/isr_Sw.c **** *   used to provide consistent definition across compilers:
 184:Generated_Source\PSoC4/isr_Sw.c **** *
 185:Generated_Source\PSoC4/isr_Sw.c **** *   Function definition example:
 186:Generated_Source\PSoC4/isr_Sw.c **** *   CY_ISR(MyISR)
 187:Generated_Source\PSoC4/isr_Sw.c **** *   {
 188:Generated_Source\PSoC4/isr_Sw.c **** *   }
 189:Generated_Source\PSoC4/isr_Sw.c **** *
 190:Generated_Source\PSoC4/isr_Sw.c **** *   Function prototype example:
 191:Generated_Source\PSoC4/isr_Sw.c **** *     CY_ISR_PROTO(MyISR);
 192:Generated_Source\PSoC4/isr_Sw.c **** *
 193:Generated_Source\PSoC4/isr_Sw.c **** * Parameters:
 194:Generated_Source\PSoC4/isr_Sw.c **** *   address: Address of the ISR to set in the interrupt vector table.
 195:Generated_Source\PSoC4/isr_Sw.c **** *
 196:Generated_Source\PSoC4/isr_Sw.c **** * Return:
 197:Generated_Source\PSoC4/isr_Sw.c **** *   None
 198:Generated_Source\PSoC4/isr_Sw.c **** *
 199:Generated_Source\PSoC4/isr_Sw.c **** *******************************************************************************/
 200:Generated_Source\PSoC4/isr_Sw.c **** void isr_Sw_SetVector(cyisraddress address)
 201:Generated_Source\PSoC4/isr_Sw.c **** {
ARM GAS  C:\Users\ADMINI~1\AppData\Local\Temp\cc30I6Th.s 			page 5


  28              		.loc 1 201 0
  29              		.cfi_startproc
  30              		@ args = 0, pretend = 0, frame = 0
  31              		@ frame_needed = 0, uses_anonymous_args = 0
  32              		@ link register save eliminated.
  33              	.LVL0:
 202:Generated_Source\PSoC4/isr_Sw.c ****     CyRamVectors[CYINT_IRQ_BASE + isr_Sw__INTC_NUMBER] = address;
  34              		.loc 1 202 0
  35 0000 014B     		ldr	r3, .L2
  36 0002 9864     		str	r0, [r3, #72]
 203:Generated_Source\PSoC4/isr_Sw.c **** }
  37              		.loc 1 203 0
  38              		@ sp needed
  39 0004 7047     		bx	lr
  40              	.L3:
  41 0006 C046     		.align	2
  42              	.L2:
  43 0008 00000000 		.word	CyRamVectors
  44              		.cfi_endproc
  45              	.LFE6:
  46              		.size	isr_Sw_SetVector, .-isr_Sw_SetVector
  47              		.section	.text.isr_Sw_GetVector,"ax",%progbits
  48              		.align	2
  49              		.global	isr_Sw_GetVector
  50              		.code	16
  51              		.thumb_func
  52              		.type	isr_Sw_GetVector, %function
  53              	isr_Sw_GetVector:
  54              	.LFB7:
 204:Generated_Source\PSoC4/isr_Sw.c **** 
 205:Generated_Source\PSoC4/isr_Sw.c **** 
 206:Generated_Source\PSoC4/isr_Sw.c **** /*******************************************************************************
 207:Generated_Source\PSoC4/isr_Sw.c **** * Function Name: isr_Sw_GetVector
 208:Generated_Source\PSoC4/isr_Sw.c **** ********************************************************************************
 209:Generated_Source\PSoC4/isr_Sw.c **** *
 210:Generated_Source\PSoC4/isr_Sw.c **** * Summary:
 211:Generated_Source\PSoC4/isr_Sw.c **** *   Gets the "address" of the current ISR vector for the Interrupt.
 212:Generated_Source\PSoC4/isr_Sw.c **** *
 213:Generated_Source\PSoC4/isr_Sw.c **** * Parameters:
 214:Generated_Source\PSoC4/isr_Sw.c **** *   None
 215:Generated_Source\PSoC4/isr_Sw.c **** *
 216:Generated_Source\PSoC4/isr_Sw.c **** * Return:
 217:Generated_Source\PSoC4/isr_Sw.c **** *   Address of the ISR in the interrupt vector table.
 218:Generated_Source\PSoC4/isr_Sw.c **** *
 219:Generated_Source\PSoC4/isr_Sw.c **** *******************************************************************************/
 220:Generated_Source\PSoC4/isr_Sw.c **** cyisraddress isr_Sw_GetVector(void)
 221:Generated_Source\PSoC4/isr_Sw.c **** {
  55              		.loc 1 221 0
  56              		.cfi_startproc
  57              		@ args = 0, pretend = 0, frame = 0
  58              		@ frame_needed = 0, uses_anonymous_args = 0
  59              		@ link register save eliminated.
 222:Generated_Source\PSoC4/isr_Sw.c ****     return CyRamVectors[CYINT_IRQ_BASE + isr_Sw__INTC_NUMBER];
  60              		.loc 1 222 0
  61 0000 014B     		ldr	r3, .L5
  62 0002 986C     		ldr	r0, [r3, #72]
 223:Generated_Source\PSoC4/isr_Sw.c **** }
ARM GAS  C:\Users\ADMINI~1\AppData\Local\Temp\cc30I6Th.s 			page 6


  63              		.loc 1 223 0
  64              		@ sp needed
  65 0004 7047     		bx	lr
  66              	.L6:
  67 0006 C046     		.align	2
  68              	.L5:
  69 0008 00000000 		.word	CyRamVectors
  70              		.cfi_endproc
  71              	.LFE7:
  72              		.size	isr_Sw_GetVector, .-isr_Sw_GetVector
  73              		.section	.text.isr_Sw_SetPriority,"ax",%progbits
  74              		.align	2
  75              		.global	isr_Sw_SetPriority
  76              		.code	16
  77              		.thumb_func
  78              		.type	isr_Sw_SetPriority, %function
  79              	isr_Sw_SetPriority:
  80              	.LFB8:
 224:Generated_Source\PSoC4/isr_Sw.c **** 
 225:Generated_Source\PSoC4/isr_Sw.c **** 
 226:Generated_Source\PSoC4/isr_Sw.c **** /*******************************************************************************
 227:Generated_Source\PSoC4/isr_Sw.c **** * Function Name: isr_Sw_SetPriority
 228:Generated_Source\PSoC4/isr_Sw.c **** ********************************************************************************
 229:Generated_Source\PSoC4/isr_Sw.c **** *
 230:Generated_Source\PSoC4/isr_Sw.c **** * Summary:
 231:Generated_Source\PSoC4/isr_Sw.c **** *   Sets the Priority of the Interrupt. 
 232:Generated_Source\PSoC4/isr_Sw.c **** *
 233:Generated_Source\PSoC4/isr_Sw.c **** *   Note calling isr_Sw_Start or isr_Sw_StartEx will 
 234:Generated_Source\PSoC4/isr_Sw.c **** *   override any effect this API would have had. This API should only be called
 235:Generated_Source\PSoC4/isr_Sw.c **** *   after isr_Sw_Start or isr_Sw_StartEx has been called. 
 236:Generated_Source\PSoC4/isr_Sw.c **** *   To set the initial priority for the component, use the Design-Wide Resources
 237:Generated_Source\PSoC4/isr_Sw.c **** *   Interrupt Editor.
 238:Generated_Source\PSoC4/isr_Sw.c **** *
 239:Generated_Source\PSoC4/isr_Sw.c **** *   Note This API has no effect on Non-maskable interrupt NMI).
 240:Generated_Source\PSoC4/isr_Sw.c **** *
 241:Generated_Source\PSoC4/isr_Sw.c **** * Parameters:
 242:Generated_Source\PSoC4/isr_Sw.c **** *   priority: Priority of the interrupt, 0 being the highest priority
 243:Generated_Source\PSoC4/isr_Sw.c **** *             PSoC 3 and PSoC 5LP: Priority is from 0 to 7.
 244:Generated_Source\PSoC4/isr_Sw.c **** *             PSoC 4: Priority is from 0 to 3.
 245:Generated_Source\PSoC4/isr_Sw.c **** *
 246:Generated_Source\PSoC4/isr_Sw.c **** * Return:
 247:Generated_Source\PSoC4/isr_Sw.c **** *   None
 248:Generated_Source\PSoC4/isr_Sw.c **** *
 249:Generated_Source\PSoC4/isr_Sw.c **** *******************************************************************************/
 250:Generated_Source\PSoC4/isr_Sw.c **** void isr_Sw_SetPriority(uint8 priority)
 251:Generated_Source\PSoC4/isr_Sw.c **** {
  81              		.loc 1 251 0
  82              		.cfi_startproc
  83              		@ args = 0, pretend = 0, frame = 0
  84              		@ frame_needed = 0, uses_anonymous_args = 0
  85              	.LVL1:
  86 0000 10B5     		push	{r4, lr}
  87              		.cfi_def_cfa_offset 8
  88              		.cfi_offset 4, -8
  89              		.cfi_offset 14, -4
  90 0002 0400     		movs	r4, r0
  91              	.LVL2:
ARM GAS  C:\Users\ADMINI~1\AppData\Local\Temp\cc30I6Th.s 			page 7


 252:Generated_Source\PSoC4/isr_Sw.c **** 	uint8 interruptState;
 253:Generated_Source\PSoC4/isr_Sw.c ****     uint32 priorityOffset = ((isr_Sw__INTC_NUMBER % 4u) * 8u) + 6u;
 254:Generated_Source\PSoC4/isr_Sw.c ****     
 255:Generated_Source\PSoC4/isr_Sw.c **** 	interruptState = CyEnterCriticalSection();
  92              		.loc 1 255 0
  93 0004 FFF7FEFF 		bl	CyEnterCriticalSection
  94              	.LVL3:
 256:Generated_Source\PSoC4/isr_Sw.c ****     *isr_Sw_INTC_PRIOR = (*isr_Sw_INTC_PRIOR & (uint32)(~isr_Sw__INTC_PRIOR_MASK)) |
  95              		.loc 1 256 0
  96 0008 044A     		ldr	r2, .L8
  97 000a 1168     		ldr	r1, [r2]
  98 000c 044B     		ldr	r3, .L8+4
  99 000e 0B40     		ands	r3, r1
 257:Generated_Source\PSoC4/isr_Sw.c ****                                     ((uint32)priority << priorityOffset);
 100              		.loc 1 257 0
 101 0010 A405     		lsls	r4, r4, #22
 256:Generated_Source\PSoC4/isr_Sw.c ****     *isr_Sw_INTC_PRIOR = (*isr_Sw_INTC_PRIOR & (uint32)(~isr_Sw__INTC_PRIOR_MASK)) |
 102              		.loc 1 256 0
 103 0012 1C43     		orrs	r4, r3
 104 0014 1460     		str	r4, [r2]
 258:Generated_Source\PSoC4/isr_Sw.c **** 	CyExitCriticalSection(interruptState);
 105              		.loc 1 258 0
 106 0016 FFF7FEFF 		bl	CyExitCriticalSection
 107              	.LVL4:
 259:Generated_Source\PSoC4/isr_Sw.c **** }
 108              		.loc 1 259 0
 109              		@ sp needed
 110 001a 10BD     		pop	{r4, pc}
 111              	.L9:
 112              		.align	2
 113              	.L8:
 114 001c 00E400E0 		.word	-536812544
 115 0020 FFFF3FFF 		.word	-12582913
 116              		.cfi_endproc
 117              	.LFE8:
 118              		.size	isr_Sw_SetPriority, .-isr_Sw_SetPriority
 119              		.section	.text.isr_Sw_GetPriority,"ax",%progbits
 120              		.align	2
 121              		.global	isr_Sw_GetPriority
 122              		.code	16
 123              		.thumb_func
 124              		.type	isr_Sw_GetPriority, %function
 125              	isr_Sw_GetPriority:
 126              	.LFB9:
 260:Generated_Source\PSoC4/isr_Sw.c **** 
 261:Generated_Source\PSoC4/isr_Sw.c **** 
 262:Generated_Source\PSoC4/isr_Sw.c **** /*******************************************************************************
 263:Generated_Source\PSoC4/isr_Sw.c **** * Function Name: isr_Sw_GetPriority
 264:Generated_Source\PSoC4/isr_Sw.c **** ********************************************************************************
 265:Generated_Source\PSoC4/isr_Sw.c **** *
 266:Generated_Source\PSoC4/isr_Sw.c **** * Summary:
 267:Generated_Source\PSoC4/isr_Sw.c **** *   Gets the Priority of the Interrupt.
 268:Generated_Source\PSoC4/isr_Sw.c **** *
 269:Generated_Source\PSoC4/isr_Sw.c **** * Parameters:
 270:Generated_Source\PSoC4/isr_Sw.c **** *   None
 271:Generated_Source\PSoC4/isr_Sw.c **** *
 272:Generated_Source\PSoC4/isr_Sw.c **** * Return:
ARM GAS  C:\Users\ADMINI~1\AppData\Local\Temp\cc30I6Th.s 			page 8


 273:Generated_Source\PSoC4/isr_Sw.c **** *   Priority of the interrupt, 0 being the highest priority
 274:Generated_Source\PSoC4/isr_Sw.c **** *    PSoC 3 and PSoC 5LP: Priority is from 0 to 7.
 275:Generated_Source\PSoC4/isr_Sw.c **** *    PSoC 4: Priority is from 0 to 3.
 276:Generated_Source\PSoC4/isr_Sw.c **** *
 277:Generated_Source\PSoC4/isr_Sw.c **** *******************************************************************************/
 278:Generated_Source\PSoC4/isr_Sw.c **** uint8 isr_Sw_GetPriority(void)
 279:Generated_Source\PSoC4/isr_Sw.c **** {
 127              		.loc 1 279 0
 128              		.cfi_startproc
 129              		@ args = 0, pretend = 0, frame = 0
 130              		@ frame_needed = 0, uses_anonymous_args = 0
 131              		@ link register save eliminated.
 132              	.LVL5:
 280:Generated_Source\PSoC4/isr_Sw.c ****     uint32 priority;
 281:Generated_Source\PSoC4/isr_Sw.c **** 	uint32 priorityOffset = ((isr_Sw__INTC_NUMBER % 4u) * 8u) + 6u;
 282:Generated_Source\PSoC4/isr_Sw.c **** 
 283:Generated_Source\PSoC4/isr_Sw.c ****     priority = (*isr_Sw_INTC_PRIOR & isr_Sw__INTC_PRIOR_MASK) >> priorityOffset;
 133              		.loc 1 283 0
 134 0000 024B     		ldr	r3, .L11
 135 0002 1868     		ldr	r0, [r3]
 136 0004 800D     		lsrs	r0, r0, #22
 137              	.LVL6:
 284:Generated_Source\PSoC4/isr_Sw.c **** 
 285:Generated_Source\PSoC4/isr_Sw.c ****     return (uint8)priority;
 138              		.loc 1 285 0
 139 0006 0323     		movs	r3, #3
 140 0008 1840     		ands	r0, r3
 141              	.LVL7:
 286:Generated_Source\PSoC4/isr_Sw.c **** }
 142              		.loc 1 286 0
 143              		@ sp needed
 144 000a 7047     		bx	lr
 145              	.L12:
 146              		.align	2
 147              	.L11:
 148 000c 00E400E0 		.word	-536812544
 149              		.cfi_endproc
 150              	.LFE9:
 151              		.size	isr_Sw_GetPriority, .-isr_Sw_GetPriority
 152              		.section	.text.isr_Sw_Enable,"ax",%progbits
 153              		.align	2
 154              		.global	isr_Sw_Enable
 155              		.code	16
 156              		.thumb_func
 157              		.type	isr_Sw_Enable, %function
 158              	isr_Sw_Enable:
 159              	.LFB10:
 287:Generated_Source\PSoC4/isr_Sw.c **** 
 288:Generated_Source\PSoC4/isr_Sw.c **** 
 289:Generated_Source\PSoC4/isr_Sw.c **** /*******************************************************************************
 290:Generated_Source\PSoC4/isr_Sw.c **** * Function Name: isr_Sw_Enable
 291:Generated_Source\PSoC4/isr_Sw.c **** ********************************************************************************
 292:Generated_Source\PSoC4/isr_Sw.c **** *
 293:Generated_Source\PSoC4/isr_Sw.c **** * Summary:
 294:Generated_Source\PSoC4/isr_Sw.c **** *   Enables the interrupt to the interrupt controller. Do not call this function
 295:Generated_Source\PSoC4/isr_Sw.c **** *   unless ISR_Start() has been called or the functionality of the ISR_Start() 
 296:Generated_Source\PSoC4/isr_Sw.c **** *   function, which sets the vector and the priority, has been called.
ARM GAS  C:\Users\ADMINI~1\AppData\Local\Temp\cc30I6Th.s 			page 9


 297:Generated_Source\PSoC4/isr_Sw.c **** *
 298:Generated_Source\PSoC4/isr_Sw.c **** * Parameters:
 299:Generated_Source\PSoC4/isr_Sw.c **** *   None
 300:Generated_Source\PSoC4/isr_Sw.c **** *
 301:Generated_Source\PSoC4/isr_Sw.c **** * Return:
 302:Generated_Source\PSoC4/isr_Sw.c **** *   None
 303:Generated_Source\PSoC4/isr_Sw.c **** *
 304:Generated_Source\PSoC4/isr_Sw.c **** *******************************************************************************/
 305:Generated_Source\PSoC4/isr_Sw.c **** void isr_Sw_Enable(void)
 306:Generated_Source\PSoC4/isr_Sw.c **** {
 160              		.loc 1 306 0
 161              		.cfi_startproc
 162              		@ args = 0, pretend = 0, frame = 0
 163              		@ frame_needed = 0, uses_anonymous_args = 0
 164              		@ link register save eliminated.
 307:Generated_Source\PSoC4/isr_Sw.c ****     /* Enable the general interrupt. */
 308:Generated_Source\PSoC4/isr_Sw.c ****     *isr_Sw_INTC_SET_EN = isr_Sw__INTC_MASK;
 165              		.loc 1 308 0
 166 0000 0422     		movs	r2, #4
 167 0002 014B     		ldr	r3, .L14
 168 0004 1A60     		str	r2, [r3]
 309:Generated_Source\PSoC4/isr_Sw.c **** }
 169              		.loc 1 309 0
 170              		@ sp needed
 171 0006 7047     		bx	lr
 172              	.L15:
 173              		.align	2
 174              	.L14:
 175 0008 00E100E0 		.word	-536813312
 176              		.cfi_endproc
 177              	.LFE10:
 178              		.size	isr_Sw_Enable, .-isr_Sw_Enable
 179              		.section	.text.isr_Sw_GetState,"ax",%progbits
 180              		.align	2
 181              		.global	isr_Sw_GetState
 182              		.code	16
 183              		.thumb_func
 184              		.type	isr_Sw_GetState, %function
 185              	isr_Sw_GetState:
 186              	.LFB11:
 310:Generated_Source\PSoC4/isr_Sw.c **** 
 311:Generated_Source\PSoC4/isr_Sw.c **** 
 312:Generated_Source\PSoC4/isr_Sw.c **** /*******************************************************************************
 313:Generated_Source\PSoC4/isr_Sw.c **** * Function Name: isr_Sw_GetState
 314:Generated_Source\PSoC4/isr_Sw.c **** ********************************************************************************
 315:Generated_Source\PSoC4/isr_Sw.c **** *
 316:Generated_Source\PSoC4/isr_Sw.c **** * Summary:
 317:Generated_Source\PSoC4/isr_Sw.c **** *   Gets the state (enabled, disabled) of the Interrupt.
 318:Generated_Source\PSoC4/isr_Sw.c **** *
 319:Generated_Source\PSoC4/isr_Sw.c **** * Parameters:
 320:Generated_Source\PSoC4/isr_Sw.c **** *   None
 321:Generated_Source\PSoC4/isr_Sw.c **** *
 322:Generated_Source\PSoC4/isr_Sw.c **** * Return:
 323:Generated_Source\PSoC4/isr_Sw.c **** *   1 if enabled, 0 if disabled.
 324:Generated_Source\PSoC4/isr_Sw.c **** *
 325:Generated_Source\PSoC4/isr_Sw.c **** *******************************************************************************/
 326:Generated_Source\PSoC4/isr_Sw.c **** uint8 isr_Sw_GetState(void)
ARM GAS  C:\Users\ADMINI~1\AppData\Local\Temp\cc30I6Th.s 			page 10


 327:Generated_Source\PSoC4/isr_Sw.c **** {
 187              		.loc 1 327 0
 188              		.cfi_startproc
 189              		@ args = 0, pretend = 0, frame = 0
 190              		@ frame_needed = 0, uses_anonymous_args = 0
 191              		@ link register save eliminated.
 328:Generated_Source\PSoC4/isr_Sw.c ****     /* Get the state of the general interrupt. */
 329:Generated_Source\PSoC4/isr_Sw.c ****     return ((*isr_Sw_INTC_SET_EN & (uint32)isr_Sw__INTC_MASK) != 0u) ? 1u:0u;
 192              		.loc 1 329 0
 193 0000 034B     		ldr	r3, .L19
 194 0002 1B68     		ldr	r3, [r3]
 195 0004 5B07     		lsls	r3, r3, #29
 196 0006 01D5     		bpl	.L18
 197 0008 0120     		movs	r0, #1
 198 000a 00E0     		b	.L17
 199              	.L18:
 200 000c 0020     		movs	r0, #0
 201              	.L17:
 330:Generated_Source\PSoC4/isr_Sw.c **** }
 202              		.loc 1 330 0 discriminator 4
 203              		@ sp needed
 204 000e 7047     		bx	lr
 205              	.L20:
 206              		.align	2
 207              	.L19:
 208 0010 00E100E0 		.word	-536813312
 209              		.cfi_endproc
 210              	.LFE11:
 211              		.size	isr_Sw_GetState, .-isr_Sw_GetState
 212              		.section	.text.isr_Sw_Disable,"ax",%progbits
 213              		.align	2
 214              		.global	isr_Sw_Disable
 215              		.code	16
 216              		.thumb_func
 217              		.type	isr_Sw_Disable, %function
 218              	isr_Sw_Disable:
 219              	.LFB12:
 331:Generated_Source\PSoC4/isr_Sw.c **** 
 332:Generated_Source\PSoC4/isr_Sw.c **** 
 333:Generated_Source\PSoC4/isr_Sw.c **** /*******************************************************************************
 334:Generated_Source\PSoC4/isr_Sw.c **** * Function Name: isr_Sw_Disable
 335:Generated_Source\PSoC4/isr_Sw.c **** ********************************************************************************
 336:Generated_Source\PSoC4/isr_Sw.c **** *
 337:Generated_Source\PSoC4/isr_Sw.c **** * Summary:
 338:Generated_Source\PSoC4/isr_Sw.c **** *   Disables the Interrupt in the interrupt controller.
 339:Generated_Source\PSoC4/isr_Sw.c **** *
 340:Generated_Source\PSoC4/isr_Sw.c **** * Parameters:
 341:Generated_Source\PSoC4/isr_Sw.c **** *   None
 342:Generated_Source\PSoC4/isr_Sw.c **** *
 343:Generated_Source\PSoC4/isr_Sw.c **** * Return:
 344:Generated_Source\PSoC4/isr_Sw.c **** *   None
 345:Generated_Source\PSoC4/isr_Sw.c **** *
 346:Generated_Source\PSoC4/isr_Sw.c **** *******************************************************************************/
 347:Generated_Source\PSoC4/isr_Sw.c **** void isr_Sw_Disable(void)
 348:Generated_Source\PSoC4/isr_Sw.c **** {
 220              		.loc 1 348 0
 221              		.cfi_startproc
ARM GAS  C:\Users\ADMINI~1\AppData\Local\Temp\cc30I6Th.s 			page 11


 222              		@ args = 0, pretend = 0, frame = 0
 223              		@ frame_needed = 0, uses_anonymous_args = 0
 224              		@ link register save eliminated.
 349:Generated_Source\PSoC4/isr_Sw.c ****     /* Disable the general interrupt. */
 350:Generated_Source\PSoC4/isr_Sw.c ****     *isr_Sw_INTC_CLR_EN = isr_Sw__INTC_MASK;
 225              		.loc 1 350 0
 226 0000 0422     		movs	r2, #4
 227 0002 014B     		ldr	r3, .L22
 228 0004 1A60     		str	r2, [r3]
 351:Generated_Source\PSoC4/isr_Sw.c **** }
 229              		.loc 1 351 0
 230              		@ sp needed
 231 0006 7047     		bx	lr
 232              	.L23:
 233              		.align	2
 234              	.L22:
 235 0008 80E100E0 		.word	-536813184
 236              		.cfi_endproc
 237              	.LFE12:
 238              		.size	isr_Sw_Disable, .-isr_Sw_Disable
 239              		.section	.text.isr_Sw_Start,"ax",%progbits
 240              		.align	2
 241              		.global	isr_Sw_Start
 242              		.code	16
 243              		.thumb_func
 244              		.type	isr_Sw_Start, %function
 245              	isr_Sw_Start:
 246              	.LFB2:
  57:Generated_Source\PSoC4/isr_Sw.c ****     /* For all we know the interrupt is active. */
 247              		.loc 1 57 0
 248              		.cfi_startproc
 249              		@ args = 0, pretend = 0, frame = 0
 250              		@ frame_needed = 0, uses_anonymous_args = 0
 251 0000 10B5     		push	{r4, lr}
 252              		.cfi_def_cfa_offset 8
 253              		.cfi_offset 4, -8
 254              		.cfi_offset 14, -4
  59:Generated_Source\PSoC4/isr_Sw.c **** 
 255              		.loc 1 59 0
 256 0002 FFF7FEFF 		bl	isr_Sw_Disable
 257              	.LVL8:
  62:Generated_Source\PSoC4/isr_Sw.c **** 
 258              		.loc 1 62 0
 259 0006 0448     		ldr	r0, .L25
 260 0008 FFF7FEFF 		bl	isr_Sw_SetVector
 261              	.LVL9:
  65:Generated_Source\PSoC4/isr_Sw.c **** 
 262              		.loc 1 65 0
 263 000c 0320     		movs	r0, #3
 264 000e FFF7FEFF 		bl	isr_Sw_SetPriority
 265              	.LVL10:
  68:Generated_Source\PSoC4/isr_Sw.c **** }
 266              		.loc 1 68 0
 267 0012 FFF7FEFF 		bl	isr_Sw_Enable
 268              	.LVL11:
  69:Generated_Source\PSoC4/isr_Sw.c **** 
 269              		.loc 1 69 0
ARM GAS  C:\Users\ADMINI~1\AppData\Local\Temp\cc30I6Th.s 			page 12


 270              		@ sp needed
 271 0016 10BD     		pop	{r4, pc}
 272              	.L26:
 273              		.align	2
 274              	.L25:
 275 0018 00000000 		.word	isr_Sw_Interrupt
 276              		.cfi_endproc
 277              	.LFE2:
 278              		.size	isr_Sw_Start, .-isr_Sw_Start
 279              		.section	.text.isr_Sw_StartEx,"ax",%progbits
 280              		.align	2
 281              		.global	isr_Sw_StartEx
 282              		.code	16
 283              		.thumb_func
 284              		.type	isr_Sw_StartEx, %function
 285              	isr_Sw_StartEx:
 286              	.LFB3:
 100:Generated_Source\PSoC4/isr_Sw.c ****     /* For all we know the interrupt is active. */
 287              		.loc 1 100 0
 288              		.cfi_startproc
 289              		@ args = 0, pretend = 0, frame = 0
 290              		@ frame_needed = 0, uses_anonymous_args = 0
 291              	.LVL12:
 292 0000 10B5     		push	{r4, lr}
 293              		.cfi_def_cfa_offset 8
 294              		.cfi_offset 4, -8
 295              		.cfi_offset 14, -4
 296 0002 0400     		movs	r4, r0
 102:Generated_Source\PSoC4/isr_Sw.c **** 
 297              		.loc 1 102 0
 298 0004 FFF7FEFF 		bl	isr_Sw_Disable
 299              	.LVL13:
 105:Generated_Source\PSoC4/isr_Sw.c **** 
 300              		.loc 1 105 0
 301 0008 2000     		movs	r0, r4
 302 000a FFF7FEFF 		bl	isr_Sw_SetVector
 303              	.LVL14:
 108:Generated_Source\PSoC4/isr_Sw.c **** 
 304              		.loc 1 108 0
 305 000e 0320     		movs	r0, #3
 306 0010 FFF7FEFF 		bl	isr_Sw_SetPriority
 307              	.LVL15:
 111:Generated_Source\PSoC4/isr_Sw.c **** }
 308              		.loc 1 111 0
 309 0014 FFF7FEFF 		bl	isr_Sw_Enable
 310              	.LVL16:
 112:Generated_Source\PSoC4/isr_Sw.c **** 
 311              		.loc 1 112 0
 312              		@ sp needed
 313              	.LVL17:
 314 0018 10BD     		pop	{r4, pc}
 315              		.cfi_endproc
 316              	.LFE3:
 317              		.size	isr_Sw_StartEx, .-isr_Sw_StartEx
 318 001a C046     		.section	.text.isr_Sw_Stop,"ax",%progbits
 319              		.align	2
 320              		.global	isr_Sw_Stop
ARM GAS  C:\Users\ADMINI~1\AppData\Local\Temp\cc30I6Th.s 			page 13


 321              		.code	16
 322              		.thumb_func
 323              		.type	isr_Sw_Stop, %function
 324              	isr_Sw_Stop:
 325              	.LFB4:
 130:Generated_Source\PSoC4/isr_Sw.c ****     /* Disable this interrupt. */
 326              		.loc 1 130 0
 327              		.cfi_startproc
 328              		@ args = 0, pretend = 0, frame = 0
 329              		@ frame_needed = 0, uses_anonymous_args = 0
 330 0000 10B5     		push	{r4, lr}
 331              		.cfi_def_cfa_offset 8
 332              		.cfi_offset 4, -8
 333              		.cfi_offset 14, -4
 132:Generated_Source\PSoC4/isr_Sw.c **** 
 334              		.loc 1 132 0
 335 0002 FFF7FEFF 		bl	isr_Sw_Disable
 336              	.LVL18:
 135:Generated_Source\PSoC4/isr_Sw.c **** }
 337              		.loc 1 135 0
 338 0006 0248     		ldr	r0, .L29
 339 0008 FFF7FEFF 		bl	isr_Sw_SetVector
 340              	.LVL19:
 136:Generated_Source\PSoC4/isr_Sw.c **** 
 341              		.loc 1 136 0
 342              		@ sp needed
 343 000c 10BD     		pop	{r4, pc}
 344              	.L30:
 345 000e C046     		.align	2
 346              	.L29:
 347 0010 00000000 		.word	IntDefaultHandler
 348              		.cfi_endproc
 349              	.LFE4:
 350              		.size	isr_Sw_Stop, .-isr_Sw_Stop
 351              		.section	.text.isr_Sw_SetPending,"ax",%progbits
 352              		.align	2
 353              		.global	isr_Sw_SetPending
 354              		.code	16
 355              		.thumb_func
 356              		.type	isr_Sw_SetPending, %function
 357              	isr_Sw_SetPending:
 358              	.LFB13:
 352:Generated_Source\PSoC4/isr_Sw.c **** 
 353:Generated_Source\PSoC4/isr_Sw.c **** 
 354:Generated_Source\PSoC4/isr_Sw.c **** /*******************************************************************************
 355:Generated_Source\PSoC4/isr_Sw.c **** * Function Name: isr_Sw_SetPending
 356:Generated_Source\PSoC4/isr_Sw.c **** ********************************************************************************
 357:Generated_Source\PSoC4/isr_Sw.c **** *
 358:Generated_Source\PSoC4/isr_Sw.c **** * Summary:
 359:Generated_Source\PSoC4/isr_Sw.c **** *   Causes the Interrupt to enter the pending state, a software method of
 360:Generated_Source\PSoC4/isr_Sw.c **** *   generating the interrupt.
 361:Generated_Source\PSoC4/isr_Sw.c **** *
 362:Generated_Source\PSoC4/isr_Sw.c **** * Parameters:
 363:Generated_Source\PSoC4/isr_Sw.c **** *   None
 364:Generated_Source\PSoC4/isr_Sw.c **** *
 365:Generated_Source\PSoC4/isr_Sw.c **** * Return:
 366:Generated_Source\PSoC4/isr_Sw.c **** *   None
ARM GAS  C:\Users\ADMINI~1\AppData\Local\Temp\cc30I6Th.s 			page 14


 367:Generated_Source\PSoC4/isr_Sw.c **** *
 368:Generated_Source\PSoC4/isr_Sw.c **** * Side Effects:
 369:Generated_Source\PSoC4/isr_Sw.c **** *   If interrupts are enabled and the interrupt is set up properly, the ISR is
 370:Generated_Source\PSoC4/isr_Sw.c **** *   entered (depending on the priority of this interrupt and other pending 
 371:Generated_Source\PSoC4/isr_Sw.c **** *   interrupts).
 372:Generated_Source\PSoC4/isr_Sw.c **** *
 373:Generated_Source\PSoC4/isr_Sw.c **** *******************************************************************************/
 374:Generated_Source\PSoC4/isr_Sw.c **** void isr_Sw_SetPending(void)
 375:Generated_Source\PSoC4/isr_Sw.c **** {
 359              		.loc 1 375 0
 360              		.cfi_startproc
 361              		@ args = 0, pretend = 0, frame = 0
 362              		@ frame_needed = 0, uses_anonymous_args = 0
 363              		@ link register save eliminated.
 376:Generated_Source\PSoC4/isr_Sw.c ****     *isr_Sw_INTC_SET_PD = isr_Sw__INTC_MASK;
 364              		.loc 1 376 0
 365 0000 0422     		movs	r2, #4
 366 0002 014B     		ldr	r3, .L32
 367 0004 1A60     		str	r2, [r3]
 377:Generated_Source\PSoC4/isr_Sw.c **** }
 368              		.loc 1 377 0
 369              		@ sp needed
 370 0006 7047     		bx	lr
 371              	.L33:
 372              		.align	2
 373              	.L32:
 374 0008 00E200E0 		.word	-536813056
 375              		.cfi_endproc
 376              	.LFE13:
 377              		.size	isr_Sw_SetPending, .-isr_Sw_SetPending
 378              		.section	.text.isr_Sw_ClearPending,"ax",%progbits
 379              		.align	2
 380              		.global	isr_Sw_ClearPending
 381              		.code	16
 382              		.thumb_func
 383              		.type	isr_Sw_ClearPending, %function
 384              	isr_Sw_ClearPending:
 385              	.LFB14:
 378:Generated_Source\PSoC4/isr_Sw.c **** 
 379:Generated_Source\PSoC4/isr_Sw.c **** 
 380:Generated_Source\PSoC4/isr_Sw.c **** /*******************************************************************************
 381:Generated_Source\PSoC4/isr_Sw.c **** * Function Name: isr_Sw_ClearPending
 382:Generated_Source\PSoC4/isr_Sw.c **** ********************************************************************************
 383:Generated_Source\PSoC4/isr_Sw.c **** *
 384:Generated_Source\PSoC4/isr_Sw.c **** * Summary:
 385:Generated_Source\PSoC4/isr_Sw.c **** *   Clears a pending interrupt in the interrupt controller.
 386:Generated_Source\PSoC4/isr_Sw.c **** *
 387:Generated_Source\PSoC4/isr_Sw.c **** *   Note Some interrupt sources are clear-on-read and require the block 
 388:Generated_Source\PSoC4/isr_Sw.c **** *   interrupt/status register to be read/cleared with the appropriate block API 
 389:Generated_Source\PSoC4/isr_Sw.c **** *   (GPIO, UART, and so on). Otherwise the ISR will continue to remain in 
 390:Generated_Source\PSoC4/isr_Sw.c **** *   pending state even though the interrupt itself is cleared using this API.
 391:Generated_Source\PSoC4/isr_Sw.c **** *
 392:Generated_Source\PSoC4/isr_Sw.c **** * Parameters:
 393:Generated_Source\PSoC4/isr_Sw.c **** *   None
 394:Generated_Source\PSoC4/isr_Sw.c **** *
 395:Generated_Source\PSoC4/isr_Sw.c **** * Return:
 396:Generated_Source\PSoC4/isr_Sw.c **** *   None
ARM GAS  C:\Users\ADMINI~1\AppData\Local\Temp\cc30I6Th.s 			page 15


 397:Generated_Source\PSoC4/isr_Sw.c **** *
 398:Generated_Source\PSoC4/isr_Sw.c **** *******************************************************************************/
 399:Generated_Source\PSoC4/isr_Sw.c **** void isr_Sw_ClearPending(void)
 400:Generated_Source\PSoC4/isr_Sw.c **** {
 386              		.loc 1 400 0
 387              		.cfi_startproc
 388              		@ args = 0, pretend = 0, frame = 0
 389              		@ frame_needed = 0, uses_anonymous_args = 0
 390              		@ link register save eliminated.
 401:Generated_Source\PSoC4/isr_Sw.c ****     *isr_Sw_INTC_CLR_PD = isr_Sw__INTC_MASK;
 391              		.loc 1 401 0
 392 0000 0422     		movs	r2, #4
 393 0002 014B     		ldr	r3, .L35
 394 0004 1A60     		str	r2, [r3]
 402:Generated_Source\PSoC4/isr_Sw.c **** }
 395              		.loc 1 402 0
 396              		@ sp needed
 397 0006 7047     		bx	lr
 398              	.L36:
 399              		.align	2
 400              	.L35:
 401 0008 80E200E0 		.word	-536812928
 402              		.cfi_endproc
 403              	.LFE14:
 404              		.size	isr_Sw_ClearPending, .-isr_Sw_ClearPending
 405              		.section	.text.isr_Sw_Interrupt,"ax",%progbits
 406              		.align	2
 407              		.global	isr_Sw_Interrupt
 408              		.code	16
 409              		.thumb_func
 410              		.type	isr_Sw_Interrupt, %function
 411              	isr_Sw_Interrupt:
 412              	.LFB5:
 160:Generated_Source\PSoC4/isr_Sw.c ****     #ifdef isr_Sw_INTERRUPT_INTERRUPT_CALLBACK
 413              		.loc 1 160 0
 414              		.cfi_startproc
 415              		@ args = 0, pretend = 0, frame = 0
 416              		@ frame_needed = 0, uses_anonymous_args = 0
 417 0000 10B5     		push	{r4, lr}
 418              		.cfi_def_cfa_offset 8
 419              		.cfi_offset 4, -8
 420              		.cfi_offset 14, -4
 167:Generated_Source\PSoC4/isr_Sw.c **** 	isr_Sw_ClearPending();
 421              		.loc 1 167 0
 422 0002 FFF7FEFF 		bl	SW_ClearInterrupt
 423              	.LVL20:
 168:Generated_Source\PSoC4/isr_Sw.c ****     /* `#END` */
 424              		.loc 1 168 0
 425 0006 FFF7FEFF 		bl	isr_Sw_ClearPending
 426              	.LVL21:
 170:Generated_Source\PSoC4/isr_Sw.c **** 
 427              		.loc 1 170 0
 428              		@ sp needed
 429 000a 10BD     		pop	{r4, pc}
 430              		.cfi_endproc
 431              	.LFE5:
 432              		.size	isr_Sw_Interrupt, .-isr_Sw_Interrupt
ARM GAS  C:\Users\ADMINI~1\AppData\Local\Temp\cc30I6Th.s 			page 16


 433              		.text
 434              	.Letext0:
 435              		.file 2 "Generated_Source\\PSoC4/cytypes.h"
 436              		.file 3 "Generated_Source\\PSoC4/CyLib.h"
 437              		.file 4 "Generated_Source\\PSoC4\\SW.h"